
_cgroupstests:     file format elf32-i386


Disassembly of section .text:

00000000 <test_kernel_freem_mem.part.23>:
    ASSERT_UINT_EQ(file_dirty_aggregated, 0);
    ASSERT_UINT_EQ(pgfault, 0);
    ASSERT_UINT_EQ(pgmajfault, 0);
}

TEST(test_kernel_freem_mem)
       0:	55                   	push   %ebp
       1:	89 e5                	mov    %esp,%ebp
       3:	57                   	push   %edi
       4:	56                   	push   %esi
       5:	53                   	push   %ebx
       6:	89 c6                	mov    %eax,%esi
       8:	31 db                	xor    %ebx,%ebx
       a:	83 ec 0c             	sub    $0xc,%esp
       d:	eb 16                	jmp    25 <test_kernel_freem_mem.part.23+0x25>
       f:	90                   	nop
{
  ASSERT_FALSE(kmemtest());
      10:	83 ec 08             	sub    $0x8,%esp
      13:	83 c3 01             	add    $0x1,%ebx
      16:	68 18 c8 00 00       	push   $0xc818
      1b:	6a 01                	push   $0x1
      1d:	e8 7e c3 00 00       	call   c3a0 <printf>
      22:	83 c4 10             	add    $0x10,%esp
      25:	83 ec 0c             	sub    $0xc,%esp
      28:	68 1a c8 00 00       	push   $0xc81a
      2d:	e8 2e be 00 00       	call   be60 <strlen>
      32:	89 c7                	mov    %eax,%edi
      34:	c7 04 24 25 c8 00 00 	movl   $0xc825,(%esp)
      3b:	e8 20 be 00 00       	call   be60 <strlen>
      40:	8d 44 07 02          	lea    0x2(%edi,%eax,1),%eax
      44:	83 c4 10             	add    $0x10,%esp
      47:	39 d8                	cmp    %ebx,%eax
      49:	77 c5                	ja     10 <test_kernel_freem_mem.part.23+0x10>
      4b:	83 ec 0c             	sub    $0xc,%esp
      4e:	68 15 05 00 00       	push   $0x515
      53:	68 30 c8 00 00       	push   $0xc830
      58:	56                   	push   %esi
      59:	68 34 d3 00 00       	push   $0xd334
      5e:	6a 01                	push   $0x1
      60:	e8 3b c3 00 00       	call   c3a0 <printf>
      65:	c7 05 40 42 01 00 01 	movl   $0x1,0x14240
      6c:	00 00 00 
      6f:	83 c4 20             	add    $0x20,%esp
}
      72:	8d 65 f4             	lea    -0xc(%ebp),%esp
      75:	5b                   	pop    %ebx
      76:	5e                   	pop    %esi
      77:	5f                   	pop    %edi
      78:	5d                   	pop    %ebp
      79:	c3                   	ret    
      7a:	8d b6 00 00 00 00    	lea    0x0(%esi),%esi

00000080 <print_error>:
#include "user.h"

#define REMOVE_2_ADDITIONAL_CHARS 2

void print_error(const char* name, unsigned long int x, unsigned long int y,
                 const char* file, int line) {
      80:	55                   	push   %ebp
      81:	89 e5                	mov    %esp,%ebp
      83:	57                   	push   %edi
      84:	56                   	push   %esi
      85:	53                   	push   %ebx
    for (int i = 0; i < strlen(name) + strlen("[RUNNING] ") + REMOVE_2_ADDITIONAL_CHARS; i++)
      86:	31 db                	xor    %ebx,%ebx
#include "user.h"

#define REMOVE_2_ADDITIONAL_CHARS 2

void print_error(const char* name, unsigned long int x, unsigned long int y,
                 const char* file, int line) {
      88:	83 ec 0c             	sub    $0xc,%esp
      8b:	8b 75 08             	mov    0x8(%ebp),%esi
    for (int i = 0; i < strlen(name) + strlen("[RUNNING] ") + REMOVE_2_ADDITIONAL_CHARS; i++)
      8e:	eb 15                	jmp    a5 <print_error+0x25>
        printf(1, "\b");
      90:	83 ec 08             	sub    $0x8,%esp

#define REMOVE_2_ADDITIONAL_CHARS 2

void print_error(const char* name, unsigned long int x, unsigned long int y,
                 const char* file, int line) {
    for (int i = 0; i < strlen(name) + strlen("[RUNNING] ") + REMOVE_2_ADDITIONAL_CHARS; i++)
      93:	83 c3 01             	add    $0x1,%ebx
        printf(1, "\b");
      96:	68 18 c8 00 00       	push   $0xc818
      9b:	6a 01                	push   $0x1
      9d:	e8 fe c2 00 00       	call   c3a0 <printf>

#define REMOVE_2_ADDITIONAL_CHARS 2

void print_error(const char* name, unsigned long int x, unsigned long int y,
                 const char* file, int line) {
    for (int i = 0; i < strlen(name) + strlen("[RUNNING] ") + REMOVE_2_ADDITIONAL_CHARS; i++)
      a2:	83 c4 10             	add    $0x10,%esp
      a5:	83 ec 0c             	sub    $0xc,%esp
      a8:	56                   	push   %esi
      a9:	e8 b2 bd 00 00       	call   be60 <strlen>
      ae:	89 c7                	mov    %eax,%edi
      b0:	c7 04 24 25 c8 00 00 	movl   $0xc825,(%esp)
      b7:	e8 a4 bd 00 00       	call   be60 <strlen>
      bc:	8d 44 07 02          	lea    0x2(%edi,%eax,1),%eax
      c0:	83 c4 10             	add    $0x10,%esp
      c3:	39 d8                	cmp    %ebx,%eax
      c5:	77 c9                	ja     90 <print_error+0x10>
        printf(1, "\b");
    printf(1, "[FAILED] %s - expected %d but got %d (%s:%d)\n",
      c7:	83 ec 04             	sub    $0x4,%esp
      ca:	ff 75 18             	pushl  0x18(%ebp)
      cd:	ff 75 14             	pushl  0x14(%ebp)
      d0:	ff 75 10             	pushl  0x10(%ebp)
      d3:	ff 75 0c             	pushl  0xc(%ebp)
      d6:	56                   	push   %esi
      d7:	68 68 d3 00 00       	push   $0xd368
      dc:	6a 01                	push   $0x1
      de:	e8 bd c2 00 00       	call   c3a0 <printf>
           name, x, y, file, line);
}
      e3:	83 c4 20             	add    $0x20,%esp
      e6:	8d 65 f4             	lea    -0xc(%ebp),%esp
      e9:	5b                   	pop    %ebx
      ea:	5e                   	pop    %esi
      eb:	5f                   	pop    %edi
      ec:	5d                   	pop    %ebp
      ed:	c3                   	ret    
      ee:	66 90                	xchg   %ax,%ax

000000f0 <get_kernel_total_memory>:

//######################################## Helper functions#######################

//Parse memory.stat info and fetch "kernel" value
int get_kernel_total_memory(char * mem_stat_info)
{
      f0:	55                   	push   %ebp
      f1:	89 e5                	mov    %esp,%ebp
      f3:	83 ec 10             	sub    $0x10,%esp
  char * kernel_value = 0;

  kernel_value = strstr(mem_stat_info, (char *)"kernel - ");
      f6:	68 3f c8 00 00       	push   $0xc83f
      fb:	ff 75 08             	pushl  0x8(%ebp)
      fe:	e8 0d c0 00 00       	call   c110 <strstr>

  return atoi(kernel_value);
     103:	83 c4 10             	add    $0x10,%esp
     106:	89 45 08             	mov    %eax,0x8(%ebp)
}
     109:	c9                   	leave  
{
  char * kernel_value = 0;

  kernel_value = strstr(mem_stat_info, (char *)"kernel - ");

  return atoi(kernel_value);
     10a:	e9 91 be 00 00       	jmp    bfa0 <atoi>
     10f:	90                   	nop

00000110 <is_valid_controller_type>:
}

// Return if controller type is valid.
int is_valid_controller_type(int controller_type) {
     110:	55                   	push   %ebp
  return controller_type >= CPU_CNT &&
     111:	31 c0                	xor    %eax,%eax

  return atoi(kernel_value);
}

// Return if controller type is valid.
int is_valid_controller_type(int controller_type) {
     113:	89 e5                	mov    %esp,%ebp
  return controller_type >= CPU_CNT &&
     115:	83 7d 08 03          	cmpl   $0x3,0x8(%ebp)
    controller_type <= CPU_CNT + CONTROLLER_COUNT - 1;
}
     119:	5d                   	pop    %ebp
  return atoi(kernel_value);
}

// Return if controller type is valid.
int is_valid_controller_type(int controller_type) {
  return controller_type >= CPU_CNT &&
     11a:	0f 96 c0             	setbe  %al
    controller_type <= CPU_CNT + CONTROLLER_COUNT - 1;
}
     11d:	c3                   	ret    
     11e:	66 90                	xchg   %ax,%ax

00000120 <get_controller_name>:

// Return controller name.
char* get_controller_name(int controller_type) {
     120:	55                   	push   %ebp
     121:	89 e5                	mov    %esp,%ebp
     123:	8b 45 08             	mov    0x8(%ebp),%eax
  if (!is_valid_controller_type(controller_type)) {
     126:	83 f8 03             	cmp    $0x3,%eax
     129:	77 0d                	ja     138 <get_controller_name+0x18>
    return 0;
  }

  return controller_names[controller_type];
     12b:	c1 e0 04             	shl    $0x4,%eax
     12e:	05 00 40 01 00       	add    $0x14000,%eax
}
     133:	5d                   	pop    %ebp
     134:	c3                   	ret    
     135:	8d 76 00             	lea    0x0(%esi),%esi
}

// Return controller name.
char* get_controller_name(int controller_type) {
  if (!is_valid_controller_type(controller_type)) {
    return 0;
     138:	31 c0                	xor    %eax,%eax
  }

  return controller_names[controller_type];
}
     13a:	5d                   	pop    %ebp
     13b:	c3                   	ret    
     13c:	8d 74 26 00          	lea    0x0(%esi,%eiz,1),%esi

00000140 <set_suppress>:

// Turn on debug messeges or turn them off.
void set_suppress(char _suppress) {
     140:	55                   	push   %ebp
     141:	89 e5                	mov    %esp,%ebp
  suppress = _suppress;
     143:	8b 45 08             	mov    0x8(%ebp),%eax
}
     146:	5d                   	pop    %ebp
  return controller_names[controller_type];
}

// Turn on debug messeges or turn them off.
void set_suppress(char _suppress) {
  suppress = _suppress;
     147:	a2 44 42 01 00       	mov    %al,0x14244
}
     14c:	c3                   	ret    
     14d:	8d 76 00             	lea    0x0(%esi),%esi

00000150 <open_file>:
     memset(string, 0, length);
}

// Open given file.
int open_file(const char* file)
{
     150:	55                   	push   %ebp
     151:	89 e5                	mov    %esp,%ebp
     153:	56                   	push   %esi
     154:	53                   	push   %ebx
     155:	8b 75 08             	mov    0x8(%ebp),%esi
  int fd;

  if ((fd = open(file, O_RDWR)) < 1) {
     158:	83 ec 08             	sub    $0x8,%esp
     15b:	6a 02                	push   $0x2
     15d:	56                   	push   %esi
     15e:	e8 c5 c0 00 00       	call   c228 <open>
     163:	83 c4 10             	add    $0x10,%esp
     166:	85 c0                	test   %eax,%eax
     168:	89 c3                	mov    %eax,%ebx
     16a:	7e 0c                	jle    178 <open_file+0x28>
      printf(1, "\nFailed to open file: %s\n", file);
    return 0;
  }

  return fd;
}
     16c:	8d 65 f8             	lea    -0x8(%ebp),%esp
     16f:	89 d8                	mov    %ebx,%eax
     171:	5b                   	pop    %ebx
     172:	5e                   	pop    %esi
     173:	5d                   	pop    %ebp
     174:	c3                   	ret    
     175:	8d 76 00             	lea    0x0(%esi),%esi
  int fd;

  if ((fd = open(file, O_RDWR)) < 1) {
    if (suppress == 0)
      printf(1, "\nFailed to open file: %s\n", file);
    return 0;
     178:	31 db                	xor    %ebx,%ebx
int open_file(const char* file)
{
  int fd;

  if ((fd = open(file, O_RDWR)) < 1) {
    if (suppress == 0)
     17a:	80 3d 44 42 01 00 00 	cmpb   $0x0,0x14244
     181:	75 e9                	jne    16c <open_file+0x1c>
      printf(1, "\nFailed to open file: %s\n", file);
     183:	83 ec 04             	sub    $0x4,%esp
     186:	56                   	push   %esi
     187:	68 49 c8 00 00       	push   $0xc849
     18c:	6a 01                	push   $0x1
     18e:	e8 0d c2 00 00       	call   c3a0 <printf>
     193:	83 c4 10             	add    $0x10,%esp
    return 0;
  }

  return fd;
}
     196:	8d 65 f8             	lea    -0x8(%ebp),%esp
     199:	89 d8                	mov    %ebx,%eax
     19b:	5b                   	pop    %ebx
     19c:	5e                   	pop    %esi
     19d:	5d                   	pop    %ebp
     19e:	c3                   	ret    
     19f:	90                   	nop

000001a0 <close_file>:

// Close given file.
int close_file(int fd)
{
     1a0:	55                   	push   %ebp
     1a1:	89 e5                	mov    %esp,%ebp
     1a3:	53                   	push   %ebx
    if (suppress == 0)
      printf(1, "\nFailed to close file\n");
    return 0;
  }

  return 1;
     1a4:	bb 01 00 00 00       	mov    $0x1,%ebx
  return fd;
}

// Close given file.
int close_file(int fd)
{
     1a9:	83 ec 10             	sub    $0x10,%esp
  if (close(fd) != 0) {
     1ac:	ff 75 08             	pushl  0x8(%ebp)
     1af:	e8 5c c0 00 00       	call   c210 <close>
     1b4:	83 c4 10             	add    $0x10,%esp
     1b7:	85 c0                	test   %eax,%eax
     1b9:	74 0b                	je     1c6 <close_file+0x26>
    if (suppress == 0)
      printf(1, "\nFailed to close file\n");
    return 0;
     1bb:	31 db                	xor    %ebx,%ebx

// Close given file.
int close_file(int fd)
{
  if (close(fd) != 0) {
    if (suppress == 0)
     1bd:	80 3d 44 42 01 00 00 	cmpb   $0x0,0x14244
     1c4:	74 0a                	je     1d0 <close_file+0x30>
      printf(1, "\nFailed to close file\n");
    return 0;
  }

  return 1;
}
     1c6:	89 d8                	mov    %ebx,%eax
     1c8:	8b 5d fc             	mov    -0x4(%ebp),%ebx
     1cb:	c9                   	leave  
     1cc:	c3                   	ret    
     1cd:	8d 76 00             	lea    0x0(%esi),%esi
// Close given file.
int close_file(int fd)
{
  if (close(fd) != 0) {
    if (suppress == 0)
      printf(1, "\nFailed to close file\n");
     1d0:	83 ec 08             	sub    $0x8,%esp
     1d3:	68 63 c8 00 00       	push   $0xc863
     1d8:	6a 01                	push   $0x1
     1da:	e8 c1 c1 00 00       	call   c3a0 <printf>
    return 0;
  }

  return 1;
}
     1df:	89 d8                	mov    %ebx,%eax
// Close given file.
int close_file(int fd)
{
  if (close(fd) != 0) {
    if (suppress == 0)
      printf(1, "\nFailed to close file\n");
     1e1:	83 c4 10             	add    $0x10,%esp
    return 0;
  }

  return 1;
}
     1e4:	8b 5d fc             	mov    -0x4(%ebp),%ebx
     1e7:	c9                   	leave  
     1e8:	c3                   	ret    
     1e9:	8d b4 26 00 00 00 00 	lea    0x0(%esi,%eiz,1),%esi

000001f0 <open_close_file>:

// Open and close given file.
int open_close_file(const char* file) {
     1f0:	55                   	push   %ebp
     1f1:	89 e5                	mov    %esp,%ebp
     1f3:	83 ec 14             	sub    $0x14,%esp
  int fd = open_file(file);
     1f6:	ff 75 08             	pushl  0x8(%ebp)
     1f9:	e8 52 ff ff ff       	call   150 <open_file>
  if (!fd) {
     1fe:	83 c4 10             	add    $0x10,%esp
     201:	85 c0                	test   %eax,%eax
     203:	75 0b                	jne    210 <open_close_file+0x20>
    return 0;
  }
  return close_file(fd);
}
     205:	31 c0                	xor    %eax,%eax
     207:	c9                   	leave  
     208:	c3                   	ret    
     209:	8d b4 26 00 00 00 00 	lea    0x0(%esi,%eiz,1),%esi
int open_close_file(const char* file) {
  int fd = open_file(file);
  if (!fd) {
    return 0;
  }
  return close_file(fd);
     210:	89 45 08             	mov    %eax,0x8(%ebp)
}
     213:	c9                   	leave  
int open_close_file(const char* file) {
  int fd = open_file(file);
  if (!fd) {
    return 0;
  }
  return close_file(fd);
     214:	eb 8a                	jmp    1a0 <close_file>
     216:	8d 76 00             	lea    0x0(%esi),%esi
     219:	8d bc 27 00 00 00 00 	lea    0x0(%edi,%eiz,1),%edi

00000220 <read_file>:
}

// Read from a given file. if fails, return 0. Upon success returns the contents of the file.
// If print is set to 1, also prints the returned string.
char* read_file(const char* file, int print)
{
     220:	55                   	push   %ebp
     221:	89 e5                	mov    %esp,%ebp
     223:	56                   	push   %esi
     224:	53                   	push   %ebx
     225:	8b 75 08             	mov    0x8(%ebp),%esi
}

// Set the given string length to empty.
static void empty_string(char* string, int length)
{
     memset(string, 0, length);
     228:	83 ec 04             	sub    $0x4,%esp
     22b:	68 00 01 00 00       	push   $0x100
     230:	6a 00                	push   $0x0
     232:	68 60 42 01 00       	push   $0x14260
     237:	e8 54 bc 00 00       	call   be90 <memset>
char* read_file(const char* file, int print)
{
  static char buf[256];
  empty_string(buf, 256);

  int fd = open_file(file);
     23c:	89 34 24             	mov    %esi,(%esp)
     23f:	e8 0c ff ff ff       	call   150 <open_file>
  if (!fd) {
     244:	83 c4 10             	add    $0x10,%esp
     247:	85 c0                	test   %eax,%eax
     249:	74 6d                	je     2b8 <read_file+0x98>
    return 0;
  }
  if (read(fd, buf, 256) < 0) {
     24b:	83 ec 04             	sub    $0x4,%esp
     24e:	89 c3                	mov    %eax,%ebx
     250:	68 00 01 00 00       	push   $0x100
     255:	68 60 42 01 00       	push   $0x14260
     25a:	50                   	push   %eax
     25b:	e8 a0 bf 00 00       	call   c200 <read>
     260:	83 c4 10             	add    $0x10,%esp
     263:	85 c0                	test   %eax,%eax
     265:	78 29                	js     290 <read_file+0x70>
      printf(1, "\nFailed to read file: %s\n", file);
    close_file(fd);
    return 0;
  }

  if (print) {
     267:	8b 45 0c             	mov    0xc(%ebp),%eax
     26a:	85 c0                	test   %eax,%eax
     26c:	75 5a                	jne    2c8 <read_file+0xa8>
    printf(1, "Contents of %s: \n%s\n", file, buf);
  }

  if (!close_file(fd)) {
     26e:	83 ec 0c             	sub    $0xc,%esp
     271:	53                   	push   %ebx
     272:	e8 29 ff ff ff       	call   1a0 <close_file>
     277:	83 c4 10             	add    $0x10,%esp
     27a:	85 c0                	test   %eax,%eax
     27c:	74 3a                	je     2b8 <read_file+0x98>
    return 0;
  }

  return buf;
}
     27e:	8d 65 f8             	lea    -0x8(%ebp),%esp

  if (!close_file(fd)) {
    return 0;
  }

  return buf;
     281:	b8 60 42 01 00       	mov    $0x14260,%eax
}
     286:	5b                   	pop    %ebx
     287:	5e                   	pop    %esi
     288:	5d                   	pop    %ebp
     289:	c3                   	ret    
     28a:	8d b6 00 00 00 00    	lea    0x0(%esi),%esi
  int fd = open_file(file);
  if (!fd) {
    return 0;
  }
  if (read(fd, buf, 256) < 0) {
    if (suppress == 0)
     290:	80 3d 44 42 01 00 00 	cmpb   $0x0,0x14244
     297:	75 13                	jne    2ac <read_file+0x8c>
      printf(1, "\nFailed to read file: %s\n", file);
     299:	83 ec 04             	sub    $0x4,%esp
     29c:	56                   	push   %esi
     29d:	68 7a c8 00 00       	push   $0xc87a
     2a2:	6a 01                	push   $0x1
     2a4:	e8 f7 c0 00 00       	call   c3a0 <printf>
     2a9:	83 c4 10             	add    $0x10,%esp
    close_file(fd);
     2ac:	83 ec 0c             	sub    $0xc,%esp
     2af:	53                   	push   %ebx
     2b0:	e8 eb fe ff ff       	call   1a0 <close_file>
    return 0;
     2b5:	83 c4 10             	add    $0x10,%esp
  if (!close_file(fd)) {
    return 0;
  }

  return buf;
}
     2b8:	8d 65 f8             	lea    -0x8(%ebp),%esp
  }
  if (read(fd, buf, 256) < 0) {
    if (suppress == 0)
      printf(1, "\nFailed to read file: %s\n", file);
    close_file(fd);
    return 0;
     2bb:	31 c0                	xor    %eax,%eax
  if (!close_file(fd)) {
    return 0;
  }

  return buf;
}
     2bd:	5b                   	pop    %ebx
     2be:	5e                   	pop    %esi
     2bf:	5d                   	pop    %ebp
     2c0:	c3                   	ret    
     2c1:	8d b4 26 00 00 00 00 	lea    0x0(%esi,%eiz,1),%esi
    close_file(fd);
    return 0;
  }

  if (print) {
    printf(1, "Contents of %s: \n%s\n", file, buf);
     2c8:	68 60 42 01 00       	push   $0x14260
     2cd:	56                   	push   %esi
     2ce:	68 94 c8 00 00       	push   $0xc894
     2d3:	6a 01                	push   $0x1
     2d5:	e8 c6 c0 00 00       	call   c3a0 <printf>
     2da:	83 c4 10             	add    $0x10,%esp
     2dd:	eb 8f                	jmp    26e <read_file+0x4e>
     2df:	90                   	nop

000002e0 <write_file>:

  return buf;
}

// Write into a file. If succesful returns 1, otherwise 0.
int write_file(const char* file, char* text) {
     2e0:	55                   	push   %ebp
     2e1:	89 e5                	mov    %esp,%ebp
     2e3:	57                   	push   %edi
     2e4:	56                   	push   %esi
     2e5:	53                   	push   %ebx
     2e6:	81 ec 18 01 00 00    	sub    $0x118,%esp
     2ec:	8b 75 08             	mov    0x8(%ebp),%esi
  char buf[256];
  int fd = open_file(file);
     2ef:	56                   	push   %esi
     2f0:	e8 5b fe ff ff       	call   150 <open_file>
     2f5:	89 c3                	mov    %eax,%ebx

  if(!fd)
     2f7:	83 c4 10             	add    $0x10,%esp
    return 0;
     2fa:	31 c0                	xor    %eax,%eax
// Write into a file. If succesful returns 1, otherwise 0.
int write_file(const char* file, char* text) {
  char buf[256];
  int fd = open_file(file);

  if(!fd)
     2fc:	85 db                	test   %ebx,%ebx
     2fe:	75 10                	jne    310 <write_file+0x30>
    close_file(fd);
    return 0;
  }

  return close_file(fd);
}
     300:	8d 65 f4             	lea    -0xc(%ebp),%esp
     303:	5b                   	pop    %ebx
     304:	5e                   	pop    %esi
     305:	5f                   	pop    %edi
     306:	5d                   	pop    %ebp
     307:	c3                   	ret    
     308:	90                   	nop
     309:	8d b4 26 00 00 00 00 	lea    0x0(%esi,%eiz,1),%esi
}

// Set the given string length to empty.
static void empty_string(char* string, int length)
{
     memset(string, 0, length);
     310:	8d bd e8 fe ff ff    	lea    -0x118(%ebp),%edi
     316:	83 ec 04             	sub    $0x4,%esp
     319:	68 00 01 00 00       	push   $0x100
     31e:	6a 00                	push   $0x0
     320:	57                   	push   %edi
     321:	e8 6a bb 00 00       	call   be90 <memset>
  int fd = open_file(file);

  if(!fd)
    return 0;
  empty_string(buf, 256);
  strcpy(buf, text);
     326:	58                   	pop    %eax
     327:	5a                   	pop    %edx
     328:	ff 75 0c             	pushl  0xc(%ebp)
     32b:	57                   	push   %edi
     32c:	e8 1f ba 00 00       	call   bd50 <strcpy>
  if (write(fd, buf, sizeof(buf)) < 0) {
     331:	83 c4 0c             	add    $0xc,%esp
     334:	68 00 01 00 00       	push   $0x100
     339:	57                   	push   %edi
     33a:	53                   	push   %ebx
     33b:	e8 c8 be 00 00       	call   c208 <write>
     340:	83 c4 10             	add    $0x10,%esp
     343:	85 c0                	test   %eax,%eax
     345:	78 19                	js     360 <write_file+0x80>
      printf(1, "\nFailed to write into file %s\n", file);
    close_file(fd);
    return 0;
  }

  return close_file(fd);
     347:	83 ec 0c             	sub    $0xc,%esp
     34a:	53                   	push   %ebx
     34b:	e8 50 fe ff ff       	call   1a0 <close_file>
     350:	83 c4 10             	add    $0x10,%esp
}
     353:	8d 65 f4             	lea    -0xc(%ebp),%esp
     356:	5b                   	pop    %ebx
     357:	5e                   	pop    %esi
     358:	5f                   	pop    %edi
     359:	5d                   	pop    %ebp
     35a:	c3                   	ret    
     35b:	90                   	nop
     35c:	8d 74 26 00          	lea    0x0(%esi,%eiz,1),%esi
  if(!fd)
    return 0;
  empty_string(buf, 256);
  strcpy(buf, text);
  if (write(fd, buf, sizeof(buf)) < 0) {
    if (suppress == 0)
     360:	80 3d 44 42 01 00 00 	cmpb   $0x0,0x14244
     367:	75 13                	jne    37c <write_file+0x9c>
      printf(1, "\nFailed to write into file %s\n", file);
     369:	83 ec 04             	sub    $0x4,%esp
     36c:	56                   	push   %esi
     36d:	68 98 d3 00 00       	push   $0xd398
     372:	6a 01                	push   $0x1
     374:	e8 27 c0 00 00       	call   c3a0 <printf>
     379:	83 c4 10             	add    $0x10,%esp
    close_file(fd);
     37c:	83 ec 0c             	sub    $0xc,%esp
     37f:	53                   	push   %ebx
     380:	e8 1b fe ff ff       	call   1a0 <close_file>
    return 0;
     385:	83 c4 10             	add    $0x10,%esp
  }

  return close_file(fd);
}
     388:	8d 65 f4             	lea    -0xc(%ebp),%esp
  strcpy(buf, text);
  if (write(fd, buf, sizeof(buf)) < 0) {
    if (suppress == 0)
      printf(1, "\nFailed to write into file %s\n", file);
    close_file(fd);
    return 0;
     38b:	31 c0                	xor    %eax,%eax
  }

  return close_file(fd);
}
     38d:	5b                   	pop    %ebx
     38e:	5e                   	pop    %esi
     38f:	5f                   	pop    %edi
     390:	5d                   	pop    %ebp
     391:	c3                   	ret    
     392:	8d b4 26 00 00 00 00 	lea    0x0(%esi,%eiz,1),%esi
     399:	8d bc 27 00 00 00 00 	lea    0x0(%edi,%eiz,1),%edi

000003a0 <write_new_file>:

int write_new_file(const char* file, char* text) {
     3a0:	55                   	push   %ebp
     3a1:	89 e5                	mov    %esp,%ebp
     3a3:	56                   	push   %esi
     3a4:	53                   	push   %ebx
     3a5:	8b 5d 08             	mov    0x8(%ebp),%ebx
   int fd;
   if ((fd = open(file, O_CREATE | O_RDWR)) < 1) {
     3a8:	83 ec 08             	sub    $0x8,%esp
     3ab:	68 02 02 00 00       	push   $0x202
     3b0:	53                   	push   %ebx
     3b1:	e8 72 be 00 00       	call   c228 <open>
     3b6:	83 c4 10             	add    $0x10,%esp
     3b9:	85 c0                	test   %eax,%eax
     3bb:	7e 3b                	jle    3f8 <write_new_file+0x58>
     if (suppress == 0)
        printf(1, "\nFailed to open a new file \n");
     return 0;
   }

   if (!write_file(file, text)) {
     3bd:	83 ec 08             	sub    $0x8,%esp
     3c0:	ff 75 0c             	pushl  0xc(%ebp)
     3c3:	89 c6                	mov    %eax,%esi
     3c5:	53                   	push   %ebx
     3c6:	e8 15 ff ff ff       	call   2e0 <write_file>
     3cb:	83 c4 10             	add    $0x10,%esp
     3ce:	85 c0                	test   %eax,%eax
     3d0:	89 c3                	mov    %eax,%ebx
     3d2:	74 0c                	je     3e0 <write_new_file+0x40>
     3d4:	89 f3                	mov    %esi,%ebx
     close_file(fd);
     return 0;
   }

  return fd;
}
     3d6:	8d 65 f8             	lea    -0x8(%ebp),%esp
     3d9:	89 d8                	mov    %ebx,%eax
     3db:	5b                   	pop    %ebx
     3dc:	5e                   	pop    %esi
     3dd:	5d                   	pop    %ebp
     3de:	c3                   	ret    
     3df:	90                   	nop
        printf(1, "\nFailed to open a new file \n");
     return 0;
   }

   if (!write_file(file, text)) {
     close_file(fd);
     3e0:	83 ec 0c             	sub    $0xc,%esp
     3e3:	56                   	push   %esi
     3e4:	e8 b7 fd ff ff       	call   1a0 <close_file>
     return 0;
     3e9:	83 c4 10             	add    $0x10,%esp
   }

  return fd;
}
     3ec:	8d 65 f8             	lea    -0x8(%ebp),%esp
     3ef:	89 d8                	mov    %ebx,%eax
     3f1:	5b                   	pop    %ebx
     3f2:	5e                   	pop    %esi
     3f3:	5d                   	pop    %ebp
     3f4:	c3                   	ret    
     3f5:	8d 76 00             	lea    0x0(%esi),%esi
int write_new_file(const char* file, char* text) {
   int fd;
   if ((fd = open(file, O_CREATE | O_RDWR)) < 1) {
     if (suppress == 0)
        printf(1, "\nFailed to open a new file \n");
     return 0;
     3f8:	31 db                	xor    %ebx,%ebx
}

int write_new_file(const char* file, char* text) {
   int fd;
   if ((fd = open(file, O_CREATE | O_RDWR)) < 1) {
     if (suppress == 0)
     3fa:	80 3d 44 42 01 00 00 	cmpb   $0x0,0x14244
     401:	75 d3                	jne    3d6 <write_new_file+0x36>
        printf(1, "\nFailed to open a new file \n");
     403:	83 ec 08             	sub    $0x8,%esp
     406:	68 a9 c8 00 00       	push   $0xc8a9
     40b:	6a 01                	push   $0x1
     40d:	e8 8e bf 00 00       	call   c3a0 <printf>
     412:	83 c4 10             	add    $0x10,%esp
     close_file(fd);
     return 0;
   }

  return fd;
}
     415:	8d 65 f8             	lea    -0x8(%ebp),%esp
     418:	89 d8                	mov    %ebx,%eax
     41a:	5b                   	pop    %ebx
     41b:	5e                   	pop    %esi
     41c:	5d                   	pop    %ebp
     41d:	c3                   	ret    
     41e:	66 90                	xchg   %ax,%ax

00000420 <enable_controller>:

// Test enabling controller according to given type.
int enable_controller(int type) {
     420:	55                   	push   %ebp
     421:	31 c0                	xor    %eax,%eax
     423:	89 e5                	mov    %esp,%ebp
     425:	53                   	push   %ebx
     426:	83 ec 14             	sub    $0x14,%esp
     429:	8b 55 08             	mov    0x8(%ebp),%edx
  char buf[5] = { '+', 0 };
     42c:	c7 45 f3 00 00 00 00 	movl   $0x0,-0xd(%ebp)
     433:	c6 45 f7 00          	movb   $0x0,-0x9(%ebp)
     437:	c6 45 f3 2b          	movb   $0x2b,-0xd(%ebp)
  if (!is_valid_controller_type(type)) {
     43b:	83 fa 03             	cmp    $0x3,%edx
     43e:	77 29                	ja     469 <enable_controller+0x49>
    return 0;
  }

  strcpy(buf + 1, controller_names[type]);
     440:	8d 45 f4             	lea    -0xc(%ebp),%eax
     443:	c1 e2 04             	shl    $0x4,%edx
     446:	83 ec 08             	sub    $0x8,%esp
     449:	81 c2 00 40 01 00    	add    $0x14000,%edx
     44f:	8d 5d f3             	lea    -0xd(%ebp),%ebx
     452:	52                   	push   %edx
     453:	50                   	push   %eax
     454:	e8 f7 b8 00 00       	call   bd50 <strcpy>

  return write_file(TEST_1_CGROUP_SUBTREE_CONTROL, buf);
     459:	58                   	pop    %eax
     45a:	5a                   	pop    %edx
     45b:	53                   	push   %ebx
     45c:	68 b8 d3 00 00       	push   $0xd3b8
     461:	e8 7a fe ff ff       	call   2e0 <write_file>
     466:	83 c4 10             	add    $0x10,%esp
}
     469:	8b 5d fc             	mov    -0x4(%ebp),%ebx
     46c:	c9                   	leave  
     46d:	c3                   	ret    
     46e:	66 90                	xchg   %ax,%ax

00000470 <disable_controller>:

// Test disabling controller according to given type.
int disable_controller(int type) {
     470:	55                   	push   %ebp
     471:	31 c0                	xor    %eax,%eax
     473:	89 e5                	mov    %esp,%ebp
     475:	53                   	push   %ebx
     476:	83 ec 14             	sub    $0x14,%esp
     479:	8b 55 08             	mov    0x8(%ebp),%edx
  char buf[5] = { '-', 0 };
     47c:	c7 45 f3 00 00 00 00 	movl   $0x0,-0xd(%ebp)
     483:	c6 45 f7 00          	movb   $0x0,-0x9(%ebp)
     487:	c6 45 f3 2d          	movb   $0x2d,-0xd(%ebp)
  if (!is_valid_controller_type(type)) {
     48b:	83 fa 03             	cmp    $0x3,%edx
     48e:	77 29                	ja     4b9 <disable_controller+0x49>
    return 0;
  }

  strcpy(buf + 1, controller_names[type]);
     490:	8d 45 f4             	lea    -0xc(%ebp),%eax
     493:	c1 e2 04             	shl    $0x4,%edx
     496:	83 ec 08             	sub    $0x8,%esp
     499:	81 c2 00 40 01 00    	add    $0x14000,%edx
     49f:	8d 5d f3             	lea    -0xd(%ebp),%ebx
     4a2:	52                   	push   %edx
     4a3:	50                   	push   %eax
     4a4:	e8 a7 b8 00 00       	call   bd50 <strcpy>

  return write_file(TEST_1_CGROUP_SUBTREE_CONTROL, buf);
     4a9:	58                   	pop    %eax
     4aa:	5a                   	pop    %edx
     4ab:	53                   	push   %ebx
     4ac:	68 b8 d3 00 00       	push   $0xd3b8
     4b1:	e8 2a fe ff ff       	call   2e0 <write_file>
     4b6:	83 c4 10             	add    $0x10,%esp
}
     4b9:	8b 5d fc             	mov    -0x4(%ebp),%ebx
     4bc:	c9                   	leave  
     4bd:	c3                   	ret    
     4be:	66 90                	xchg   %ax,%ax

000004c0 <verify_controller_enabled>:

// Test verrifying a controller is active according to given type.
int verify_controller_enabled(int type) {
     4c0:	55                   	push   %ebp
     4c1:	89 e5                	mov    %esp,%ebp
     4c3:	57                   	push   %edi
     4c4:	56                   	push   %esi
     4c5:	53                   	push   %ebx
     4c6:	83 ec 1c             	sub    $0x1c,%esp
     4c9:	8b 45 08             	mov    0x8(%ebp),%eax
  char buf[4] = { 0 };
     4cc:	c7 45 e4 00 00 00 00 	movl   $0x0,-0x1c(%ebp)
  if (!is_valid_controller_type(type)) {
     4d3:	83 f8 03             	cmp    $0x3,%eax
     4d6:	76 10                	jbe    4e8 <verify_controller_enabled+0x28>
    return 0;
     4d8:	31 c0                	xor    %eax,%eax
      return 1;
    }
  }

  return 0;
}
     4da:	8d 65 f4             	lea    -0xc(%ebp),%esp
     4dd:	5b                   	pop    %ebx
     4de:	5e                   	pop    %esi
     4df:	5f                   	pop    %edi
     4e0:	5d                   	pop    %ebp
     4e1:	c3                   	ret    
     4e2:	8d b6 00 00 00 00    	lea    0x0(%esi),%esi
  char buf[4] = { 0 };
  if (!is_valid_controller_type(type)) {
    return 0;
  }

  strcpy(buf, controller_names[type]);
     4e8:	c1 e0 04             	shl    $0x4,%eax
     4eb:	83 ec 08             	sub    $0x8,%esp
     4ee:	05 00 40 01 00       	add    $0x14000,%eax
     4f3:	50                   	push   %eax
     4f4:	8d 45 e4             	lea    -0x1c(%ebp),%eax
     4f7:	50                   	push   %eax
     4f8:	e8 53 b8 00 00       	call   bd50 <strcpy>

  char* contents = read_file(TEST_1_CGROUP_SUBTREE_CONTROL, 0);
     4fd:	58                   	pop    %eax
     4fe:	5a                   	pop    %edx
     4ff:	6a 00                	push   $0x0
     501:	68 b8 d3 00 00       	push   $0xd3b8
     506:	e8 15 fd ff ff       	call   220 <read_file>

  int i;
  for (i = 0; contents[i] != 0 && i < sizeof(contents) - 2; i++) {
     50b:	0f b6 08             	movzbl (%eax),%ecx
     50e:	83 c4 10             	add    $0x10,%esp
     511:	84 c9                	test   %cl,%cl
     513:	74 c3                	je     4d8 <verify_controller_enabled+0x18>
     515:	0f b6 5d e4          	movzbl -0x1c(%ebp),%ebx
    if (contents[i] == buf[0] && contents[i + 1] == buf[1] && contents[i + 2] == buf[2]) {
     519:	31 d2                	xor    %edx,%edx
     51b:	0f b6 75 e5          	movzbl -0x1b(%ebp),%esi
     51f:	0f b6 7d e6          	movzbl -0x1a(%ebp),%edi
     523:	38 cb                	cmp    %cl,%bl
     525:	74 14                	je     53b <verify_controller_enabled+0x7b>
  strcpy(buf, controller_names[type]);

  char* contents = read_file(TEST_1_CGROUP_SUBTREE_CONTROL, 0);

  int i;
  for (i = 0; contents[i] != 0 && i < sizeof(contents) - 2; i++) {
     527:	83 c2 01             	add    $0x1,%edx
     52a:	0f b6 0c 10          	movzbl (%eax,%edx,1),%ecx
     52e:	84 c9                	test   %cl,%cl
     530:	74 a6                	je     4d8 <verify_controller_enabled+0x18>
     532:	83 fa 02             	cmp    $0x2,%edx
     535:	74 a1                	je     4d8 <verify_controller_enabled+0x18>
    if (contents[i] == buf[0] && contents[i + 1] == buf[1] && contents[i + 2] == buf[2]) {
     537:	38 cb                	cmp    %cl,%bl
     539:	75 ec                	jne    527 <verify_controller_enabled+0x67>
     53b:	89 f1                	mov    %esi,%ecx
     53d:	38 4c 10 01          	cmp    %cl,0x1(%eax,%edx,1)
     541:	75 e4                	jne    527 <verify_controller_enabled+0x67>
     543:	89 f9                	mov    %edi,%ecx
     545:	38 4c 10 02          	cmp    %cl,0x2(%eax,%edx,1)
     549:	75 dc                	jne    527 <verify_controller_enabled+0x67>
      return 1;
     54b:	b8 01 00 00 00       	mov    $0x1,%eax
     550:	eb 88                	jmp    4da <verify_controller_enabled+0x1a>
     552:	8d b4 26 00 00 00 00 	lea    0x0(%esi,%eiz,1),%esi
     559:	8d bc 27 00 00 00 00 	lea    0x0(%edi,%eiz,1),%edi

00000560 <verify_controller_disabled>:

  return 0;
}

// Test verifying a controller is disabled according to given type.
int verify_controller_disabled(int type) {
     560:	55                   	push   %ebp
  char buf[4] = { 0 };
  if (!is_valid_controller_type(type)) {
    return 0;
     561:	31 c0                	xor    %eax,%eax

  return 0;
}

// Test verifying a controller is disabled according to given type.
int verify_controller_disabled(int type) {
     563:	89 e5                	mov    %esp,%ebp
     565:	57                   	push   %edi
     566:	56                   	push   %esi
     567:	53                   	push   %ebx
     568:	83 ec 2c             	sub    $0x2c,%esp
     56b:	8b 55 08             	mov    0x8(%ebp),%edx
  char buf[4] = { 0 };
     56e:	c7 45 e4 00 00 00 00 	movl   $0x0,-0x1c(%ebp)
  if (!is_valid_controller_type(type)) {
     575:	83 fa 03             	cmp    $0x3,%edx
     578:	76 0e                	jbe    588 <verify_controller_disabled+0x28>
      return 0;
    }
  }

  return 1;
}
     57a:	8d 65 f4             	lea    -0xc(%ebp),%esp
     57d:	5b                   	pop    %ebx
     57e:	5e                   	pop    %esi
     57f:	5f                   	pop    %edi
     580:	5d                   	pop    %ebp
     581:	c3                   	ret    
     582:	8d b6 00 00 00 00    	lea    0x0(%esi),%esi
  char buf[4] = { 0 };
  if (!is_valid_controller_type(type)) {
    return 0;
  }

  strcpy(buf, controller_names[type]);
     588:	c1 e2 04             	shl    $0x4,%edx
     58b:	8d 75 e4             	lea    -0x1c(%ebp),%esi
     58e:	83 ec 08             	sub    $0x8,%esp
     591:	81 c2 00 40 01 00    	add    $0x14000,%edx
     597:	52                   	push   %edx
     598:	56                   	push   %esi
     599:	e8 b2 b7 00 00       	call   bd50 <strcpy>

  char* contents = read_file(TEST_1_CGROUP_SUBTREE_CONTROL, 0);
     59e:	58                   	pop    %eax
     59f:	5a                   	pop    %edx
     5a0:	6a 00                	push   $0x0
     5a2:	68 b8 d3 00 00       	push   $0xd3b8
     5a7:	e8 74 fc ff ff       	call   220 <read_file>
  int i;

  for (i = 0; contents[i + 2] != 0; i++) {
     5ac:	0f b6 50 02          	movzbl 0x2(%eax),%edx
     5b0:	83 c4 10             	add    $0x10,%esp
     5b3:	84 d2                	test   %dl,%dl
     5b5:	74 59                	je     610 <verify_controller_disabled+0xb0>
    if (contents[i] == buf[0] && contents[i + 1] == buf[1] && contents[i + 2] == buf[2]) {
     5b7:	0f b6 5d e5          	movzbl -0x1b(%ebp),%ebx
     5bb:	0f b6 4d e4          	movzbl -0x1c(%ebp),%ecx
     5bf:	0f b6 7d e6          	movzbl -0x1a(%ebp),%edi
     5c3:	88 5d d7             	mov    %bl,-0x29(%ebp)
     5c6:	eb 13                	jmp    5db <verify_controller_disabled+0x7b>
     5c8:	90                   	nop
     5c9:	8d b4 26 00 00 00 00 	lea    0x0(%esi,%eiz,1),%esi
     5d0:	83 c0 01             	add    $0x1,%eax
  strcpy(buf, controller_names[type]);

  char* contents = read_file(TEST_1_CGROUP_SUBTREE_CONTROL, 0);
  int i;

  for (i = 0; contents[i + 2] != 0; i++) {
     5d3:	0f b6 50 02          	movzbl 0x2(%eax),%edx
     5d7:	84 d2                	test   %dl,%dl
     5d9:	74 35                	je     610 <verify_controller_disabled+0xb0>
    if (contents[i] == buf[0] && contents[i + 1] == buf[1] && contents[i + 2] == buf[2]) {
     5db:	3a 08                	cmp    (%eax),%cl
     5dd:	75 f1                	jne    5d0 <verify_controller_disabled+0x70>
     5df:	0f b6 5d d7          	movzbl -0x29(%ebp),%ebx
     5e3:	38 58 01             	cmp    %bl,0x1(%eax)
     5e6:	75 e8                	jne    5d0 <verify_controller_disabled+0x70>
     5e8:	89 fb                	mov    %edi,%ebx
     5ea:	38 d3                	cmp    %dl,%bl
     5ec:	75 e2                	jne    5d0 <verify_controller_disabled+0x70>
      printf(1, "\nController %s is still enabled\n", buf);
     5ee:	83 ec 04             	sub    $0x4,%esp
     5f1:	56                   	push   %esi
     5f2:	68 e0 d3 00 00       	push   $0xd3e0
     5f7:	6a 01                	push   $0x1
     5f9:	e8 a2 bd 00 00       	call   c3a0 <printf>
      return 0;
     5fe:	83 c4 10             	add    $0x10,%esp
     601:	31 c0                	xor    %eax,%eax
     603:	e9 72 ff ff ff       	jmp    57a <verify_controller_disabled+0x1a>
     608:	90                   	nop
     609:	8d b4 26 00 00 00 00 	lea    0x0(%esi,%eiz,1),%esi
    }
  }

  return 1;
}
     610:	8d 65 f4             	lea    -0xc(%ebp),%esp
      printf(1, "\nController %s is still enabled\n", buf);
      return 0;
    }
  }

  return 1;
     613:	b8 01 00 00 00       	mov    $0x1,%eax
}
     618:	5b                   	pop    %ebx
     619:	5e                   	pop    %esi
     61a:	5f                   	pop    %edi
     61b:	5d                   	pop    %ebp
     61c:	c3                   	ret    
     61d:	8d 76 00             	lea    0x0(%esi),%esi

00000620 <move_proc>:

// Test moving a process to given cgroup.
int move_proc(const char* file, int pid) {
     620:	55                   	push   %ebp
     621:	89 e5                	mov    %esp,%ebp
     623:	53                   	push   %ebx
}

// Set the given string length to empty.
static void empty_string(char* string, int length)
{
     memset(string, 0, length);
     624:	8d 5d f5             	lea    -0xb(%ebp),%ebx

  return 1;
}

// Test moving a process to given cgroup.
int move_proc(const char* file, int pid) {
     627:	83 ec 18             	sub    $0x18,%esp
}

// Set the given string length to empty.
static void empty_string(char* string, int length)
{
     memset(string, 0, length);
     62a:	6a 03                	push   $0x3
     62c:	6a 00                	push   $0x0
     62e:	53                   	push   %ebx
     62f:	e8 5c b8 00 00       	call   be90 <memset>

// Test moving a process to given cgroup.
int move_proc(const char* file, int pid) {
  char pid_buf[3];
  empty_string(pid_buf, 3);
  itoa(pid_buf, pid);
     634:	58                   	pop    %eax
     635:	5a                   	pop    %edx
     636:	ff 75 0c             	pushl  0xc(%ebp)
     639:	53                   	push   %ebx
     63a:	e8 d1 b9 00 00       	call   c010 <itoa>
  return write_file(file, pid_buf);
     63f:	59                   	pop    %ecx
     640:	58                   	pop    %eax
     641:	53                   	push   %ebx
     642:	ff 75 08             	pushl  0x8(%ebp)
     645:	e8 96 fc ff ff       	call   2e0 <write_file>
}
     64a:	8b 5d fc             	mov    -0x4(%ebp),%ebx
     64d:	c9                   	leave  
     64e:	c3                   	ret    
     64f:	90                   	nop

00000650 <is_pid_in_group>:

// Test a given pid in string format belongs to a given cgroup.
int is_pid_in_group(const char* file, int pid) {
     650:	55                   	push   %ebp
     651:	89 e5                	mov    %esp,%ebp
     653:	57                   	push   %edi
     654:	56                   	push   %esi
     655:	53                   	push   %ebx
}

// Set the given string length to empty.
static void empty_string(char* string, int length)
{
     memset(string, 0, length);
     656:	8d 75 e5             	lea    -0x1b(%ebp),%esi
  itoa(pid_buf, pid);
  return write_file(file, pid_buf);
}

// Test a given pid in string format belongs to a given cgroup.
int is_pid_in_group(const char* file, int pid) {
     659:	83 ec 24             	sub    $0x24,%esp
     65c:	8b 7d 08             	mov    0x8(%ebp),%edi
  char* contents = read_file(file, 0);
     65f:	6a 00                	push   $0x0
     661:	57                   	push   %edi
     662:	e8 b9 fb ff ff       	call   220 <read_file>
}

// Set the given string length to empty.
static void empty_string(char* string, int length)
{
     memset(string, 0, length);
     667:	83 c4 0c             	add    $0xc,%esp
  return write_file(file, pid_buf);
}

// Test a given pid in string format belongs to a given cgroup.
int is_pid_in_group(const char* file, int pid) {
  char* contents = read_file(file, 0);
     66a:	89 c3                	mov    %eax,%ebx
}

// Set the given string length to empty.
static void empty_string(char* string, int length)
{
     memset(string, 0, length);
     66c:	6a 03                	push   $0x3
     66e:	6a 00                	push   $0x0
     670:	56                   	push   %esi
     671:	e8 1a b8 00 00       	call   be90 <memset>
int is_pid_in_group(const char* file, int pid) {
  char* contents = read_file(file, 0);
  char pid_buf[3];

  empty_string(pid_buf, 3);
  itoa(pid_buf, pid);
     676:	58                   	pop    %eax
     677:	5a                   	pop    %edx
     678:	ff 75 0c             	pushl  0xc(%ebp)
     67b:	56                   	push   %esi
     67c:	e8 8f b9 00 00       	call   c010 <itoa>

  if (pid_buf[1] == 0)
     681:	83 c4 10             	add    $0x10,%esp
     684:	80 7d e6 00          	cmpb   $0x0,-0x1a(%ebp)
     688:	75 04                	jne    68e <is_pid_in_group+0x3e>
    pid_buf[1] = '\n';
     68a:	c6 45 e6 0a          	movb   $0xa,-0x1a(%ebp)

  int i;
  for (i = 0; contents[i + 1] != 0; i++) {
     68e:	0f b6 43 01          	movzbl 0x1(%ebx),%eax
     692:	84 c0                	test   %al,%al
     694:	74 32                	je     6c8 <is_pid_in_group+0x78>
     696:	0f b6 55 e5          	movzbl -0x1b(%ebp),%edx
    if (pid_buf[0] == contents[i] && pid_buf[1] == contents[i + 1]) {
     69a:	0f b6 4d e6          	movzbl -0x1a(%ebp),%ecx
     69e:	eb 0b                	jmp    6ab <is_pid_in_group+0x5b>
     6a0:	83 c3 01             	add    $0x1,%ebx

  if (pid_buf[1] == 0)
    pid_buf[1] = '\n';

  int i;
  for (i = 0; contents[i + 1] != 0; i++) {
     6a3:	0f b6 43 01          	movzbl 0x1(%ebx),%eax
     6a7:	84 c0                	test   %al,%al
     6a9:	74 1d                	je     6c8 <is_pid_in_group+0x78>
    if (pid_buf[0] == contents[i] && pid_buf[1] == contents[i + 1]) {
     6ab:	38 13                	cmp    %dl,(%ebx)
     6ad:	75 f1                	jne    6a0 <is_pid_in_group+0x50>
     6af:	38 c1                	cmp    %al,%cl
     6b1:	75 ed                	jne    6a0 <is_pid_in_group+0x50>
      return 1;
     6b3:	bb 01 00 00 00       	mov    $0x1,%ebx
  if (suppress == 0) {
    printf(1, "Failed to find pid %d in group %s\n", atoi(pid_buf), file);
  }

  return 0;
}
     6b8:	8d 65 f4             	lea    -0xc(%ebp),%esp
     6bb:	89 d8                	mov    %ebx,%eax
     6bd:	5b                   	pop    %ebx
     6be:	5e                   	pop    %esi
     6bf:	5f                   	pop    %edi
     6c0:	5d                   	pop    %ebp
     6c1:	c3                   	ret    
     6c2:	8d b6 00 00 00 00    	lea    0x0(%esi),%esi

  if (suppress == 0) {
    printf(1, "Failed to find pid %d in group %s\n", atoi(pid_buf), file);
  }

  return 0;
     6c8:	31 db                	xor    %ebx,%ebx
    if (pid_buf[0] == contents[i] && pid_buf[1] == contents[i + 1]) {
      return 1;
    }
  }

  if (suppress == 0) {
     6ca:	80 3d 44 42 01 00 00 	cmpb   $0x0,0x14244
     6d1:	75 e5                	jne    6b8 <is_pid_in_group+0x68>
    printf(1, "Failed to find pid %d in group %s\n", atoi(pid_buf), file);
     6d3:	83 ec 0c             	sub    $0xc,%esp
     6d6:	56                   	push   %esi
     6d7:	e8 c4 b8 00 00       	call   bfa0 <atoi>
     6dc:	57                   	push   %edi
     6dd:	50                   	push   %eax
     6de:	68 04 d4 00 00       	push   $0xd404
     6e3:	6a 01                	push   $0x1
     6e5:	e8 b6 bc 00 00       	call   c3a0 <printf>
     6ea:	83 c4 20             	add    $0x20,%esp
  }

  return 0;
}
     6ed:	8d 65 f4             	lea    -0xc(%ebp),%esp
     6f0:	89 d8                	mov    %ebx,%eax
     6f2:	5b                   	pop    %ebx
     6f3:	5e                   	pop    %esi
     6f4:	5f                   	pop    %edi
     6f5:	5d                   	pop    %ebp
     6f6:	c3                   	ret    
     6f7:	89 f6                	mov    %esi,%esi
     6f9:	8d bc 27 00 00 00 00 	lea    0x0(%edi,%eiz,1),%edi

00000700 <temp_write>:

// Write an integer into a temporary file. Notice only one such file currently supported.
int temp_write(int num) {
     700:	55                   	push   %ebp
     701:	89 e5                	mov    %esp,%ebp
     703:	56                   	push   %esi
     704:	53                   	push   %ebx
     705:	81 ec 08 01 00 00    	sub    $0x108,%esp
  int fd;
  if ((fd = open(TEMP_FILE, O_CREATE | O_RDWR)) < 1) {
     70b:	68 02 02 00 00       	push   $0x202
     710:	68 c6 c8 00 00       	push   $0xc8c6
     715:	e8 0e bb 00 00       	call   c228 <open>
     71a:	83 c4 10             	add    $0x10,%esp
     71d:	85 c0                	test   %eax,%eax
     71f:	7e 5f                	jle    780 <temp_write+0x80>
      printf(1, "\nFailed to open a temporary file\n");
    return 0;
  }

  char buf[256];
  itoa(buf, num);
     721:	8d 9d f8 fe ff ff    	lea    -0x108(%ebp),%ebx
     727:	83 ec 08             	sub    $0x8,%esp
     72a:	ff 75 08             	pushl  0x8(%ebp)
     72d:	89 c6                	mov    %eax,%esi
     72f:	53                   	push   %ebx
     730:	e8 db b8 00 00       	call   c010 <itoa>

  if (!write_file(TEMP_FILE, buf)) {
     735:	58                   	pop    %eax
     736:	5a                   	pop    %edx
     737:	53                   	push   %ebx
     738:	68 c6 c8 00 00       	push   $0xc8c6
     73d:	e8 9e fb ff ff       	call   2e0 <write_file>
     742:	83 c4 10             	add    $0x10,%esp
     745:	85 c0                	test   %eax,%eax
     747:	89 c3                	mov    %eax,%ebx
     749:	74 1d                	je     768 <temp_write+0x68>
    close_file(fd);
    return 0;
  }

  return close_file(fd);
     74b:	83 ec 0c             	sub    $0xc,%esp
     74e:	56                   	push   %esi
     74f:	e8 4c fa ff ff       	call   1a0 <close_file>
     754:	83 c4 10             	add    $0x10,%esp
     757:	89 c3                	mov    %eax,%ebx
}
     759:	8d 65 f8             	lea    -0x8(%ebp),%esp
     75c:	89 d8                	mov    %ebx,%eax
     75e:	5b                   	pop    %ebx
     75f:	5e                   	pop    %esi
     760:	5d                   	pop    %ebp
     761:	c3                   	ret    
     762:	8d b6 00 00 00 00    	lea    0x0(%esi),%esi

  char buf[256];
  itoa(buf, num);

  if (!write_file(TEMP_FILE, buf)) {
    close_file(fd);
     768:	83 ec 0c             	sub    $0xc,%esp
     76b:	56                   	push   %esi
     76c:	e8 2f fa ff ff       	call   1a0 <close_file>
    return 0;
     771:	83 c4 10             	add    $0x10,%esp
  }

  return close_file(fd);
}
     774:	8d 65 f8             	lea    -0x8(%ebp),%esp
     777:	89 d8                	mov    %ebx,%eax
     779:	5b                   	pop    %ebx
     77a:	5e                   	pop    %esi
     77b:	5d                   	pop    %ebp
     77c:	c3                   	ret    
     77d:	8d 76 00             	lea    0x0(%esi),%esi
int temp_write(int num) {
  int fd;
  if ((fd = open(TEMP_FILE, O_CREATE | O_RDWR)) < 1) {
    if (suppress == 0)
      printf(1, "\nFailed to open a temporary file\n");
    return 0;
     780:	31 db                	xor    %ebx,%ebx

// Write an integer into a temporary file. Notice only one such file currently supported.
int temp_write(int num) {
  int fd;
  if ((fd = open(TEMP_FILE, O_CREATE | O_RDWR)) < 1) {
    if (suppress == 0)
     782:	80 3d 44 42 01 00 00 	cmpb   $0x0,0x14244
     789:	75 ce                	jne    759 <temp_write+0x59>
      printf(1, "\nFailed to open a temporary file\n");
     78b:	83 ec 08             	sub    $0x8,%esp
     78e:	68 28 d4 00 00       	push   $0xd428
     793:	6a 01                	push   $0x1
     795:	e8 06 bc 00 00       	call   c3a0 <printf>
     79a:	83 c4 10             	add    $0x10,%esp
    close_file(fd);
    return 0;
  }

  return close_file(fd);
}
     79d:	8d 65 f8             	lea    -0x8(%ebp),%esp
     7a0:	89 d8                	mov    %ebx,%eax
     7a2:	5b                   	pop    %ebx
     7a3:	5e                   	pop    %esi
     7a4:	5d                   	pop    %ebp
     7a5:	c3                   	ret    
     7a6:	8d 76 00             	lea    0x0(%esi),%esi
     7a9:	8d bc 27 00 00 00 00 	lea    0x0(%edi,%eiz,1),%edi

000007b0 <temp_read>:

// Read an integer from the temporary file.
int temp_read(int print) {
     7b0:	55                   	push   %ebp
     7b1:	89 e5                	mov    %esp,%ebp
     7b3:	83 ec 10             	sub    $0x10,%esp
  return atoi(read_file(TEMP_FILE, print));
     7b6:	ff 75 08             	pushl  0x8(%ebp)
     7b9:	68 c6 c8 00 00       	push   $0xc8c6
     7be:	e8 5d fa ff ff       	call   220 <read_file>
     7c3:	83 c4 10             	add    $0x10,%esp
     7c6:	89 45 08             	mov    %eax,0x8(%ebp)
}
     7c9:	c9                   	leave  
  return close_file(fd);
}

// Read an integer from the temporary file.
int temp_read(int print) {
  return atoi(read_file(TEMP_FILE, print));
     7ca:	e9 d1 b7 00 00       	jmp    bfa0 <atoi>
     7cf:	90                   	nop

000007d0 <temp_delete>:
}

// Delete the temporary file.
int temp_delete() {
     7d0:	55                   	push   %ebp
     7d1:	89 e5                	mov    %esp,%ebp
     7d3:	83 ec 14             	sub    $0x14,%esp
  if (unlink(TEMP_FILE)) {
     7d6:	68 c6 c8 00 00       	push   $0xc8c6
     7db:	e8 58 ba 00 00       	call   c238 <unlink>
     7e0:	83 c4 10             	add    $0x10,%esp
     7e3:	85 c0                	test   %eax,%eax
     7e5:	ba 01 00 00 00       	mov    $0x1,%edx
     7ea:	74 14                	je     800 <temp_delete+0x30>
    printf(1, "Failed to delete temporary file\n");
     7ec:	83 ec 08             	sub    $0x8,%esp
     7ef:	68 4c d4 00 00       	push   $0xd44c
     7f4:	6a 01                	push   $0x1
     7f6:	e8 a5 bb 00 00       	call   c3a0 <printf>
     7fb:	83 c4 10             	add    $0x10,%esp
     7fe:	31 d2                	xor    %edx,%edx
    return 0;
  }

  return 1;
}
     800:	89 d0                	mov    %edx,%eax
     802:	c9                   	leave  
     803:	c3                   	ret    
     804:	8d b6 00 00 00 00    	lea    0x0(%esi),%esi
     80a:	8d bf 00 00 00 00    	lea    0x0(%edi),%edi

00000810 <get_val>:

//return the value for a given entry from the bufer
//entry must contain all characters before the value include white-space
int get_val(char *buf, char *entry){
     810:	55                   	push   %ebp
     811:	89 e5                	mov    %esp,%ebp
     813:	56                   	push   %esi
     814:	53                   	push   %ebx
     815:	8b 75 0c             	mov    0xc(%ebp),%esi
     818:	8b 5d 08             	mov    0x8(%ebp),%ebx
     81b:	90                   	nop
     81c:	8d 74 26 00          	lea    0x0(%esi,%eiz,1),%esi

  do{
     if(strncmp(buf, entry, strlen(entry))==0){
     820:	83 ec 0c             	sub    $0xc,%esp
     823:	56                   	push   %esi
     824:	e8 37 b6 00 00       	call   be60 <strlen>
     829:	83 c4 0c             	add    $0xc,%esp
     82c:	50                   	push   %eax
     82d:	56                   	push   %esi
     82e:	53                   	push   %ebx
     82f:	e8 9c b5 00 00       	call   bdd0 <strncmp>
     834:	83 c4 10             	add    $0x10,%esp
     837:	85 c0                	test   %eax,%eax
     839:	74 22                	je     85d <get_val+0x4d>
     83b:	90                   	nop
     83c:	8d 74 26 00          	lea    0x0(%esi,%eiz,1),%esi
     840:	89 d8                	mov    %ebx,%eax
       buf+=strlen(entry);
       return atoi(buf);
       }
     else
       while (*buf++!='\n')//go to next line
     842:	83 c3 01             	add    $0x1,%ebx
     845:	80 7b ff 0a          	cmpb   $0xa,-0x1(%ebx)
     849:	75 f5                	jne    840 <get_val+0x30>
            ;
      }while(*buf!='\0');
     84b:	80 78 01 00          	cmpb   $0x0,0x1(%eax)
     84f:	75 cf                	jne    820 <get_val+0x10>
  return -1;//Assuming all values are supposed to be non-negative
}
     851:	8d 65 f8             	lea    -0x8(%ebp),%esp
     854:	b8 ff ff ff ff       	mov    $0xffffffff,%eax
     859:	5b                   	pop    %ebx
     85a:	5e                   	pop    %esi
     85b:	5d                   	pop    %ebp
     85c:	c3                   	ret    
//entry must contain all characters before the value include white-space
int get_val(char *buf, char *entry){

  do{
     if(strncmp(buf, entry, strlen(entry))==0){
       buf+=strlen(entry);
     85d:	83 ec 0c             	sub    $0xc,%esp
     860:	56                   	push   %esi
     861:	e8 fa b5 00 00       	call   be60 <strlen>
       return atoi(buf);
     866:	01 c3                	add    %eax,%ebx
     868:	83 c4 10             	add    $0x10,%esp
     86b:	89 5d 08             	mov    %ebx,0x8(%ebp)
     else
       while (*buf++!='\n')//go to next line
            ;
      }while(*buf!='\0');
  return -1;//Assuming all values are supposed to be non-negative
}
     86e:	8d 65 f8             	lea    -0x8(%ebp),%esp
     871:	5b                   	pop    %ebx
     872:	5e                   	pop    %esi
     873:	5d                   	pop    %ebp
int get_val(char *buf, char *entry){

  do{
     if(strncmp(buf, entry, strlen(entry))==0){
       buf+=strlen(entry);
       return atoi(buf);
     874:	e9 27 b7 00 00       	jmp    bfa0 <atoi>
     879:	8d b4 26 00 00 00 00 	lea    0x0(%esi,%eiz,1),%esi

00000880 <build_activate_disable_activate>:
}

// Write into buffer the sequence of activating, disabling then activating a given controller.
// Returns the buffer written.
char* build_activate_disable_activate(int controller_type)
{
     880:	55                   	push   %ebp
     881:	31 c0                	xor    %eax,%eax
     883:	89 e5                	mov    %esp,%ebp
     885:	56                   	push   %esi
     886:	53                   	push   %ebx
     887:	8b 75 08             	mov    0x8(%ebp),%esi
  if (!is_valid_controller_type(controller_type)) {
     88a:	83 fe 03             	cmp    $0x3,%esi
     88d:	0f 87 83 00 00 00    	ja     916 <build_activate_disable_activate+0x96>
    return 0;
  }

  int max_size = (MAX_CONTROLLER_NAME_LENGTH + 2) * 3;
  char* buf = malloc(max_size);
     893:	83 ec 0c             	sub    $0xc,%esp
char* get_controller_name(int controller_type) {
  if (!is_valid_controller_type(controller_type)) {
    return 0;
  }

  return controller_names[controller_type];
     896:	c1 e6 04             	shl    $0x4,%esi
  if (!is_valid_controller_type(controller_type)) {
    return 0;
  }

  int max_size = (MAX_CONTROLLER_NAME_LENGTH + 2) * 3;
  char* buf = malloc(max_size);
     899:	6a 36                	push   $0x36
char* get_controller_name(int controller_type) {
  if (!is_valid_controller_type(controller_type)) {
    return 0;
  }

  return controller_names[controller_type];
     89b:	81 c6 00 40 01 00    	add    $0x14000,%esi
  if (!is_valid_controller_type(controller_type)) {
    return 0;
  }

  int max_size = (MAX_CONTROLLER_NAME_LENGTH + 2) * 3;
  char* buf = malloc(max_size);
     8a1:	e8 3a bd 00 00       	call   c5e0 <malloc>
  memset(buf, 0, max_size);
     8a6:	83 c4 0c             	add    $0xc,%esp
  if (!is_valid_controller_type(controller_type)) {
    return 0;
  }

  int max_size = (MAX_CONTROLLER_NAME_LENGTH + 2) * 3;
  char* buf = malloc(max_size);
     8a9:	89 c3                	mov    %eax,%ebx
  memset(buf, 0, max_size);
     8ab:	6a 36                	push   $0x36
     8ad:	6a 00                	push   $0x0
     8af:	50                   	push   %eax
     8b0:	e8 db b5 00 00       	call   be90 <memset>

  // "+controller "
  strcat(buf, "+");
     8b5:	58                   	pop    %eax
     8b6:	5a                   	pop    %edx
     8b7:	68 d0 c8 00 00       	push   $0xc8d0
     8bc:	53                   	push   %ebx
     8bd:	e8 fe b7 00 00       	call   c0c0 <strcat>
  strcat(buf, get_controller_name(controller_type));
     8c2:	59                   	pop    %ecx
     8c3:	58                   	pop    %eax
     8c4:	56                   	push   %esi
     8c5:	53                   	push   %ebx
     8c6:	e8 f5 b7 00 00       	call   c0c0 <strcat>
  strcat(buf, " ");
     8cb:	58                   	pop    %eax
     8cc:	5a                   	pop    %edx
     8cd:	68 8c cf 00 00       	push   $0xcf8c
     8d2:	53                   	push   %ebx
     8d3:	e8 e8 b7 00 00       	call   c0c0 <strcat>

  // "-controller "
  strcat(buf, "-");
     8d8:	59                   	pop    %ecx
     8d9:	58                   	pop    %eax
     8da:	68 d2 c8 00 00       	push   $0xc8d2
     8df:	53                   	push   %ebx
     8e0:	e8 db b7 00 00       	call   c0c0 <strcat>
  strcat(buf, get_controller_name(controller_type));
     8e5:	58                   	pop    %eax
     8e6:	5a                   	pop    %edx
     8e7:	56                   	push   %esi
     8e8:	53                   	push   %ebx
     8e9:	e8 d2 b7 00 00       	call   c0c0 <strcat>
  strcat(buf, " ");
     8ee:	59                   	pop    %ecx
     8ef:	58                   	pop    %eax
     8f0:	68 8c cf 00 00       	push   $0xcf8c
     8f5:	53                   	push   %ebx
     8f6:	e8 c5 b7 00 00       	call   c0c0 <strcat>

  // "+controller"
  strcat(buf, "+");
     8fb:	58                   	pop    %eax
     8fc:	5a                   	pop    %edx
     8fd:	68 d0 c8 00 00       	push   $0xc8d0
     902:	53                   	push   %ebx
     903:	e8 b8 b7 00 00       	call   c0c0 <strcat>
  strcat(buf, get_controller_name(controller_type));
     908:	59                   	pop    %ecx
     909:	58                   	pop    %eax
     90a:	56                   	push   %esi
     90b:	53                   	push   %ebx
     90c:	e8 af b7 00 00       	call   c0c0 <strcat>

  return buf;
     911:	83 c4 10             	add    $0x10,%esp
     914:	89 d8                	mov    %ebx,%eax
}
     916:	8d 65 f8             	lea    -0x8(%ebp),%esp
     919:	5b                   	pop    %ebx
     91a:	5e                   	pop    %esi
     91b:	5d                   	pop    %ebp
     91c:	c3                   	ret    
     91d:	8d 76 00             	lea    0x0(%esi),%esi

00000920 <build_activate_disable>:

// Write into buffer the sequence of activating then disabling a given controller.
// Returns the buffer written.
char* build_activate_disable(int controller_type)
{
     920:	55                   	push   %ebp
     921:	31 c0                	xor    %eax,%eax
     923:	89 e5                	mov    %esp,%ebp
     925:	56                   	push   %esi
     926:	53                   	push   %ebx
     927:	8b 75 08             	mov    0x8(%ebp),%esi
  if (!is_valid_controller_type(controller_type)) {
     92a:	83 fe 03             	cmp    $0x3,%esi
     92d:	77 60                	ja     98f <build_activate_disable+0x6f>
    return 0;
  }

  int max_size = (MAX_CONTROLLER_NAME_LENGTH + 2) * 2;
  char* buf = malloc(max_size);
     92f:	83 ec 0c             	sub    $0xc,%esp
char* get_controller_name(int controller_type) {
  if (!is_valid_controller_type(controller_type)) {
    return 0;
  }

  return controller_names[controller_type];
     932:	c1 e6 04             	shl    $0x4,%esi
  if (!is_valid_controller_type(controller_type)) {
    return 0;
  }

  int max_size = (MAX_CONTROLLER_NAME_LENGTH + 2) * 2;
  char* buf = malloc(max_size);
     935:	6a 24                	push   $0x24
char* get_controller_name(int controller_type) {
  if (!is_valid_controller_type(controller_type)) {
    return 0;
  }

  return controller_names[controller_type];
     937:	81 c6 00 40 01 00    	add    $0x14000,%esi
  if (!is_valid_controller_type(controller_type)) {
    return 0;
  }

  int max_size = (MAX_CONTROLLER_NAME_LENGTH + 2) * 2;
  char* buf = malloc(max_size);
     93d:	e8 9e bc 00 00       	call   c5e0 <malloc>
  memset(buf, 0, max_size);
     942:	83 c4 0c             	add    $0xc,%esp
  if (!is_valid_controller_type(controller_type)) {
    return 0;
  }

  int max_size = (MAX_CONTROLLER_NAME_LENGTH + 2) * 2;
  char* buf = malloc(max_size);
     945:	89 c3                	mov    %eax,%ebx
  memset(buf, 0, max_size);
     947:	6a 24                	push   $0x24
     949:	6a 00                	push   $0x0
     94b:	50                   	push   %eax
     94c:	e8 3f b5 00 00       	call   be90 <memset>

  // "+controller "
  strcat(buf, "+");
     951:	58                   	pop    %eax
     952:	5a                   	pop    %edx
     953:	68 d0 c8 00 00       	push   $0xc8d0
     958:	53                   	push   %ebx
     959:	e8 62 b7 00 00       	call   c0c0 <strcat>
  strcat(buf, get_controller_name(controller_type));
     95e:	59                   	pop    %ecx
     95f:	58                   	pop    %eax
     960:	56                   	push   %esi
     961:	53                   	push   %ebx
     962:	e8 59 b7 00 00       	call   c0c0 <strcat>
  strcat(buf, " ");
     967:	58                   	pop    %eax
     968:	5a                   	pop    %edx
     969:	68 8c cf 00 00       	push   $0xcf8c
     96e:	53                   	push   %ebx
     96f:	e8 4c b7 00 00       	call   c0c0 <strcat>

  // "-controller"
  strcat(buf, "-");
     974:	59                   	pop    %ecx
     975:	58                   	pop    %eax
     976:	68 d2 c8 00 00       	push   $0xc8d2
     97b:	53                   	push   %ebx
     97c:	e8 3f b7 00 00       	call   c0c0 <strcat>
  strcat(buf, get_controller_name(controller_type));
     981:	58                   	pop    %eax
     982:	5a                   	pop    %edx
     983:	56                   	push   %esi
     984:	53                   	push   %ebx
     985:	e8 36 b7 00 00       	call   c0c0 <strcat>

  return buf;
     98a:	83 c4 10             	add    $0x10,%esp
     98d:	89 d8                	mov    %ebx,%eax
}
     98f:	8d 65 f8             	lea    -0x8(%ebp),%esp
     992:	5b                   	pop    %ebx
     993:	5e                   	pop    %esi
     994:	5d                   	pop    %ebp
     995:	c3                   	ret    
     996:	8d 76 00             	lea    0x0(%esi),%esi
     999:	8d bc 27 00 00 00 00 	lea    0x0(%edi,%eiz,1),%edi

000009a0 <test_mount_cgroup_fs>:

TEST(test_mount_cgroup_fs)
{
     9a0:	55                   	push   %ebp
     9a1:	89 e5                	mov    %esp,%ebp
     9a3:	56                   	push   %esi
     9a4:	53                   	push   %ebx
     9a5:	31 db                	xor    %ebx,%ebx
    ASSERT_FALSE(mkdir(ROOT_CGROUP));
     9a7:	83 ec 0c             	sub    $0xc,%esp
     9aa:	68 d4 c8 00 00       	push   $0xc8d4
     9af:	e8 9c b8 00 00       	call   c250 <mkdir>
     9b4:	83 c4 10             	add    $0x10,%esp
     9b7:	85 c0                	test   %eax,%eax
     9b9:	75 1a                	jne    9d5 <test_mount_cgroup_fs+0x35>
     9bb:	eb 73                	jmp    a30 <test_mount_cgroup_fs+0x90>
     9bd:	8d 76 00             	lea    0x0(%esi),%esi
     9c0:	83 ec 08             	sub    $0x8,%esp
     9c3:	83 c3 01             	add    $0x1,%ebx
     9c6:	68 18 c8 00 00       	push   $0xc818
     9cb:	6a 01                	push   $0x1
     9cd:	e8 ce b9 00 00       	call   c3a0 <printf>
     9d2:	83 c4 10             	add    $0x10,%esp
     9d5:	83 ec 0c             	sub    $0xc,%esp
     9d8:	68 dc c8 00 00       	push   $0xc8dc
     9dd:	e8 7e b4 00 00       	call   be60 <strlen>
     9e2:	89 c6                	mov    %eax,%esi
     9e4:	c7 04 24 25 c8 00 00 	movl   $0xc825,(%esp)
     9eb:	e8 70 b4 00 00       	call   be60 <strlen>
     9f0:	8d 44 06 02          	lea    0x2(%esi,%eax,1),%eax
     9f4:	83 c4 10             	add    $0x10,%esp
     9f7:	39 d8                	cmp    %ebx,%eax
     9f9:	77 c5                	ja     9c0 <test_mount_cgroup_fs+0x20>
     9fb:	83 ec 0c             	sub    $0xc,%esp
     9fe:	68 6a 01 00 00       	push   $0x16a
     a03:	68 30 c8 00 00       	push   $0xc830
     a08:	ff 75 08             	pushl  0x8(%ebp)
     a0b:	68 70 d4 00 00       	push   $0xd470
     a10:	6a 01                	push   $0x1
     a12:	e8 89 b9 00 00       	call   c3a0 <printf>
     a17:	c7 05 40 42 01 00 01 	movl   $0x1,0x14240
     a1e:	00 00 00 
     a21:	83 c4 20             	add    $0x20,%esp
    ASSERT_FALSE(mount(0, ROOT_CGROUP, CGROUP));
}
     a24:	8d 65 f8             	lea    -0x8(%ebp),%esp
     a27:	5b                   	pop    %ebx
     a28:	5e                   	pop    %esi
     a29:	5d                   	pop    %ebp
     a2a:	c3                   	ret    
     a2b:	90                   	nop
     a2c:	8d 74 26 00          	lea    0x0(%esi,%eiz,1),%esi
}

TEST(test_mount_cgroup_fs)
{
    ASSERT_FALSE(mkdir(ROOT_CGROUP));
    ASSERT_FALSE(mount(0, ROOT_CGROUP, CGROUP));
     a30:	83 ec 04             	sub    $0x4,%esp
     a33:	31 db                	xor    %ebx,%ebx
     a35:	68 d5 c8 00 00       	push   $0xc8d5
     a3a:	68 d4 c8 00 00       	push   $0xc8d4
     a3f:	6a 00                	push   $0x0
     a41:	e8 42 b8 00 00       	call   c288 <mount>
     a46:	83 c4 10             	add    $0x10,%esp
     a49:	85 c0                	test   %eax,%eax
     a4b:	75 18                	jne    a65 <test_mount_cgroup_fs+0xc5>
     a4d:	eb d5                	jmp    a24 <test_mount_cgroup_fs+0x84>
     a4f:	90                   	nop
     a50:	83 ec 08             	sub    $0x8,%esp
     a53:	83 c3 01             	add    $0x1,%ebx
     a56:	68 18 c8 00 00       	push   $0xc818
     a5b:	6a 01                	push   $0x1
     a5d:	e8 3e b9 00 00       	call   c3a0 <printf>
     a62:	83 c4 10             	add    $0x10,%esp
     a65:	83 ec 0c             	sub    $0xc,%esp
     a68:	68 ef c8 00 00       	push   $0xc8ef
     a6d:	e8 ee b3 00 00       	call   be60 <strlen>
     a72:	89 c6                	mov    %eax,%esi
     a74:	c7 04 24 25 c8 00 00 	movl   $0xc825,(%esp)
     a7b:	e8 e0 b3 00 00       	call   be60 <strlen>
     a80:	8d 44 06 02          	lea    0x2(%esi,%eax,1),%eax
     a84:	83 c4 10             	add    $0x10,%esp
     a87:	39 d8                	cmp    %ebx,%eax
     a89:	77 c5                	ja     a50 <test_mount_cgroup_fs+0xb0>
     a8b:	83 ec 0c             	sub    $0xc,%esp
     a8e:	68 6b 01 00 00       	push   $0x16b
     a93:	68 30 c8 00 00       	push   $0xc830
     a98:	ff 75 08             	pushl  0x8(%ebp)
     a9b:	68 ac d4 00 00       	push   $0xd4ac
     aa0:	6a 01                	push   $0x1
     aa2:	e8 f9 b8 00 00       	call   c3a0 <printf>
     aa7:	c7 05 40 42 01 00 01 	movl   $0x1,0x14240
     aae:	00 00 00 
     ab1:	83 c4 20             	add    $0x20,%esp
}
     ab4:	8d 65 f8             	lea    -0x8(%ebp),%esp
     ab7:	5b                   	pop    %ebx
     ab8:	5e                   	pop    %esi
     ab9:	5d                   	pop    %ebp
     aba:	c3                   	ret    
     abb:	90                   	nop
     abc:	8d 74 26 00          	lea    0x0(%esi,%eiz,1),%esi

00000ac0 <test_umount_cgroup_fs>:

TEST(test_umount_cgroup_fs)
{
     ac0:	55                   	push   %ebp
     ac1:	89 e5                	mov    %esp,%ebp
     ac3:	56                   	push   %esi
     ac4:	53                   	push   %ebx
     ac5:	31 db                	xor    %ebx,%ebx
    ASSERT_FALSE(umount(ROOT_CGROUP));
     ac7:	83 ec 0c             	sub    $0xc,%esp
     aca:	68 d4 c8 00 00       	push   $0xc8d4
     acf:	e8 bc b7 00 00       	call   c290 <umount>
     ad4:	83 c4 10             	add    $0x10,%esp
     ad7:	85 c0                	test   %eax,%eax
     ad9:	75 1a                	jne    af5 <test_umount_cgroup_fs+0x35>
     adb:	eb 73                	jmp    b50 <test_umount_cgroup_fs+0x90>
     add:	8d 76 00             	lea    0x0(%esi),%esi
     ae0:	83 ec 08             	sub    $0x8,%esp
     ae3:	83 c3 01             	add    $0x1,%ebx
     ae6:	68 18 c8 00 00       	push   $0xc818
     aeb:	6a 01                	push   $0x1
     aed:	e8 ae b8 00 00       	call   c3a0 <printf>
     af2:	83 c4 10             	add    $0x10,%esp
     af5:	83 ec 0c             	sub    $0xc,%esp
     af8:	68 0d c9 00 00       	push   $0xc90d
     afd:	e8 5e b3 00 00       	call   be60 <strlen>
     b02:	89 c6                	mov    %eax,%esi
     b04:	c7 04 24 25 c8 00 00 	movl   $0xc825,(%esp)
     b0b:	e8 50 b3 00 00       	call   be60 <strlen>
     b10:	8d 44 06 02          	lea    0x2(%esi,%eax,1),%eax
     b14:	83 c4 10             	add    $0x10,%esp
     b17:	39 d8                	cmp    %ebx,%eax
     b19:	77 c5                	ja     ae0 <test_umount_cgroup_fs+0x20>
     b1b:	83 ec 0c             	sub    $0xc,%esp
     b1e:	68 70 01 00 00       	push   $0x170
     b23:	68 30 c8 00 00       	push   $0xc830
     b28:	ff 75 08             	pushl  0x8(%ebp)
     b2b:	68 f4 d4 00 00       	push   $0xd4f4
     b30:	6a 01                	push   $0x1
     b32:	e8 69 b8 00 00       	call   c3a0 <printf>
     b37:	c7 05 40 42 01 00 01 	movl   $0x1,0x14240
     b3e:	00 00 00 
     b41:	83 c4 20             	add    $0x20,%esp
    ASSERT_FALSE(unlink(ROOT_CGROUP));
}
     b44:	8d 65 f8             	lea    -0x8(%ebp),%esp
     b47:	5b                   	pop    %ebx
     b48:	5e                   	pop    %esi
     b49:	5d                   	pop    %ebp
     b4a:	c3                   	ret    
     b4b:	90                   	nop
     b4c:	8d 74 26 00          	lea    0x0(%esi,%eiz,1),%esi
}

TEST(test_umount_cgroup_fs)
{
    ASSERT_FALSE(umount(ROOT_CGROUP));
    ASSERT_FALSE(unlink(ROOT_CGROUP));
     b50:	83 ec 0c             	sub    $0xc,%esp
     b53:	31 db                	xor    %ebx,%ebx
     b55:	68 d4 c8 00 00       	push   $0xc8d4
     b5a:	e8 d9 b6 00 00       	call   c238 <unlink>
     b5f:	83 c4 10             	add    $0x10,%esp
     b62:	85 c0                	test   %eax,%eax
     b64:	75 1f                	jne    b85 <test_umount_cgroup_fs+0xc5>
     b66:	eb dc                	jmp    b44 <test_umount_cgroup_fs+0x84>
     b68:	90                   	nop
     b69:	8d b4 26 00 00 00 00 	lea    0x0(%esi,%eiz,1),%esi
     b70:	83 ec 08             	sub    $0x8,%esp
     b73:	83 c3 01             	add    $0x1,%ebx
     b76:	68 18 c8 00 00       	push   $0xc818
     b7b:	6a 01                	push   $0x1
     b7d:	e8 1e b8 00 00       	call   c3a0 <printf>
     b82:	83 c4 10             	add    $0x10,%esp
     b85:	83 ec 0c             	sub    $0xc,%esp
     b88:	68 21 c9 00 00       	push   $0xc921
     b8d:	e8 ce b2 00 00       	call   be60 <strlen>
     b92:	89 c6                	mov    %eax,%esi
     b94:	c7 04 24 25 c8 00 00 	movl   $0xc825,(%esp)
     b9b:	e8 c0 b2 00 00       	call   be60 <strlen>
     ba0:	8d 44 06 02          	lea    0x2(%esi,%eax,1),%eax
     ba4:	83 c4 10             	add    $0x10,%esp
     ba7:	39 d8                	cmp    %ebx,%eax
     ba9:	77 c5                	ja     b70 <test_umount_cgroup_fs+0xb0>
     bab:	83 ec 0c             	sub    $0xc,%esp
     bae:	68 71 01 00 00       	push   $0x171
     bb3:	68 30 c8 00 00       	push   $0xc830
     bb8:	ff 75 08             	pushl  0x8(%ebp)
     bbb:	68 34 d5 00 00       	push   $0xd534
     bc0:	6a 01                	push   $0x1
     bc2:	e8 d9 b7 00 00       	call   c3a0 <printf>
     bc7:	c7 05 40 42 01 00 01 	movl   $0x1,0x14240
     bce:	00 00 00 
     bd1:	83 c4 20             	add    $0x20,%esp
}
     bd4:	8d 65 f8             	lea    -0x8(%ebp),%esp
     bd7:	5b                   	pop    %ebx
     bd8:	5e                   	pop    %esi
     bd9:	5d                   	pop    %ebp
     bda:	c3                   	ret    
     bdb:	90                   	nop
     bdc:	8d 74 26 00          	lea    0x0(%esi,%eiz,1),%esi

00000be0 <test_creating_cgroups>:

TEST(test_creating_cgroups)
{
     be0:	55                   	push   %ebp
     be1:	89 e5                	mov    %esp,%ebp
     be3:	56                   	push   %esi
     be4:	53                   	push   %ebx
     be5:	31 db                	xor    %ebx,%ebx
    ASSERT_FALSE(mkdir(TEST_1));
     be7:	83 ec 0c             	sub    $0xc,%esp
     bea:	68 35 c9 00 00       	push   $0xc935
     bef:	e8 5c b6 00 00       	call   c250 <mkdir>
     bf4:	83 c4 10             	add    $0x10,%esp
     bf7:	85 c0                	test   %eax,%eax
     bf9:	75 1a                	jne    c15 <test_creating_cgroups+0x35>
     bfb:	eb 73                	jmp    c70 <test_creating_cgroups+0x90>
     bfd:	8d 76 00             	lea    0x0(%esi),%esi
     c00:	83 ec 08             	sub    $0x8,%esp
     c03:	83 c3 01             	add    $0x1,%ebx
     c06:	68 18 c8 00 00       	push   $0xc818
     c0b:	6a 01                	push   $0x1
     c0d:	e8 8e b7 00 00       	call   c3a0 <printf>
     c12:	83 c4 10             	add    $0x10,%esp
     c15:	83 ec 0c             	sub    $0xc,%esp
     c18:	68 43 c9 00 00       	push   $0xc943
     c1d:	e8 3e b2 00 00       	call   be60 <strlen>
     c22:	89 c6                	mov    %eax,%esi
     c24:	c7 04 24 25 c8 00 00 	movl   $0xc825,(%esp)
     c2b:	e8 30 b2 00 00       	call   be60 <strlen>
     c30:	8d 44 06 02          	lea    0x2(%esi,%eax,1),%eax
     c34:	83 c4 10             	add    $0x10,%esp
     c37:	39 d8                	cmp    %ebx,%eax
     c39:	77 c5                	ja     c00 <test_creating_cgroups+0x20>
     c3b:	83 ec 0c             	sub    $0xc,%esp
     c3e:	68 76 01 00 00       	push   $0x176
     c43:	68 30 c8 00 00       	push   $0xc830
     c48:	ff 75 08             	pushl  0x8(%ebp)
     c4b:	68 74 d5 00 00       	push   $0xd574
     c50:	6a 01                	push   $0x1
     c52:	e8 49 b7 00 00       	call   c3a0 <printf>
     c57:	c7 05 40 42 01 00 01 	movl   $0x1,0x14240
     c5e:	00 00 00 
     c61:	83 c4 20             	add    $0x20,%esp
    ASSERT_FALSE(mkdir(TEST_2));
    ASSERT_FALSE(mkdir(TEST_1_1));
    ASSERT_FALSE(mkdir(TEST_1_2));
}
     c64:	8d 65 f8             	lea    -0x8(%ebp),%esp
     c67:	5b                   	pop    %ebx
     c68:	5e                   	pop    %esi
     c69:	5d                   	pop    %ebp
     c6a:	c3                   	ret    
     c6b:	90                   	nop
     c6c:	8d 74 26 00          	lea    0x0(%esi,%eiz,1),%esi
}

TEST(test_creating_cgroups)
{
    ASSERT_FALSE(mkdir(TEST_1));
    ASSERT_FALSE(mkdir(TEST_2));
     c70:	83 ec 0c             	sub    $0xc,%esp
     c73:	31 db                	xor    %ebx,%ebx
     c75:	68 51 c9 00 00       	push   $0xc951
     c7a:	e8 d1 b5 00 00       	call   c250 <mkdir>
     c7f:	83 c4 10             	add    $0x10,%esp
     c82:	85 c0                	test   %eax,%eax
     c84:	75 1f                	jne    ca5 <test_creating_cgroups+0xc5>
     c86:	eb 78                	jmp    d00 <test_creating_cgroups+0x120>
     c88:	90                   	nop
     c89:	8d b4 26 00 00 00 00 	lea    0x0(%esi,%eiz,1),%esi
     c90:	83 ec 08             	sub    $0x8,%esp
     c93:	83 c3 01             	add    $0x1,%ebx
     c96:	68 18 c8 00 00       	push   $0xc818
     c9b:	6a 01                	push   $0x1
     c9d:	e8 fe b6 00 00       	call   c3a0 <printf>
     ca2:	83 c4 10             	add    $0x10,%esp
     ca5:	83 ec 0c             	sub    $0xc,%esp
     ca8:	68 5f c9 00 00       	push   $0xc95f
     cad:	e8 ae b1 00 00       	call   be60 <strlen>
     cb2:	89 c6                	mov    %eax,%esi
     cb4:	c7 04 24 25 c8 00 00 	movl   $0xc825,(%esp)
     cbb:	e8 a0 b1 00 00       	call   be60 <strlen>
     cc0:	8d 44 06 02          	lea    0x2(%esi,%eax,1),%eax
     cc4:	83 c4 10             	add    $0x10,%esp
     cc7:	39 d8                	cmp    %ebx,%eax
     cc9:	77 c5                	ja     c90 <test_creating_cgroups+0xb0>
     ccb:	83 ec 0c             	sub    $0xc,%esp
     cce:	68 77 01 00 00       	push   $0x177
     cd3:	68 30 c8 00 00       	push   $0xc830
     cd8:	ff 75 08             	pushl  0x8(%ebp)
     cdb:	68 ac d5 00 00       	push   $0xd5ac
     ce0:	6a 01                	push   $0x1
     ce2:	e8 b9 b6 00 00       	call   c3a0 <printf>
     ce7:	c7 05 40 42 01 00 01 	movl   $0x1,0x14240
     cee:	00 00 00 
     cf1:	83 c4 20             	add    $0x20,%esp
    ASSERT_FALSE(mkdir(TEST_1_1));
    ASSERT_FALSE(mkdir(TEST_1_2));
}
     cf4:	8d 65 f8             	lea    -0x8(%ebp),%esp
     cf7:	5b                   	pop    %ebx
     cf8:	5e                   	pop    %esi
     cf9:	5d                   	pop    %ebp
     cfa:	c3                   	ret    
     cfb:	90                   	nop
     cfc:	8d 74 26 00          	lea    0x0(%esi,%eiz,1),%esi

TEST(test_creating_cgroups)
{
    ASSERT_FALSE(mkdir(TEST_1));
    ASSERT_FALSE(mkdir(TEST_2));
    ASSERT_FALSE(mkdir(TEST_1_1));
     d00:	83 ec 0c             	sub    $0xc,%esp
     d03:	31 db                	xor    %ebx,%ebx
     d05:	68 6d c9 00 00       	push   $0xc96d
     d0a:	e8 41 b5 00 00       	call   c250 <mkdir>
     d0f:	83 c4 10             	add    $0x10,%esp
     d12:	85 c0                	test   %eax,%eax
     d14:	75 1f                	jne    d35 <test_creating_cgroups+0x155>
     d16:	eb 71                	jmp    d89 <test_creating_cgroups+0x1a9>
     d18:	90                   	nop
     d19:	8d b4 26 00 00 00 00 	lea    0x0(%esi,%eiz,1),%esi
     d20:	83 ec 08             	sub    $0x8,%esp
     d23:	83 c3 01             	add    $0x1,%ebx
     d26:	68 18 c8 00 00       	push   $0xc818
     d2b:	6a 01                	push   $0x1
     d2d:	e8 6e b6 00 00       	call   c3a0 <printf>
     d32:	83 c4 10             	add    $0x10,%esp
     d35:	83 ec 0c             	sub    $0xc,%esp
     d38:	68 7d c9 00 00       	push   $0xc97d
     d3d:	e8 1e b1 00 00       	call   be60 <strlen>
     d42:	89 c6                	mov    %eax,%esi
     d44:	c7 04 24 25 c8 00 00 	movl   $0xc825,(%esp)
     d4b:	e8 10 b1 00 00       	call   be60 <strlen>
     d50:	8d 44 06 02          	lea    0x2(%esi,%eax,1),%eax
     d54:	83 c4 10             	add    $0x10,%esp
     d57:	39 d8                	cmp    %ebx,%eax
     d59:	77 c5                	ja     d20 <test_creating_cgroups+0x140>
     d5b:	83 ec 0c             	sub    $0xc,%esp
     d5e:	68 78 01 00 00       	push   $0x178
     d63:	68 30 c8 00 00       	push   $0xc830
     d68:	ff 75 08             	pushl  0x8(%ebp)
     d6b:	68 e4 d5 00 00       	push   $0xd5e4
     d70:	6a 01                	push   $0x1
     d72:	e8 29 b6 00 00       	call   c3a0 <printf>
     d77:	c7 05 40 42 01 00 01 	movl   $0x1,0x14240
     d7e:	00 00 00 
     d81:	83 c4 20             	add    $0x20,%esp
     d84:	e9 db fe ff ff       	jmp    c64 <test_creating_cgroups+0x84>
    ASSERT_FALSE(mkdir(TEST_1_2));
     d89:	83 ec 0c             	sub    $0xc,%esp
     d8c:	31 db                	xor    %ebx,%ebx
     d8e:	68 8d c9 00 00       	push   $0xc98d
     d93:	e8 b8 b4 00 00       	call   c250 <mkdir>
     d98:	83 c4 10             	add    $0x10,%esp
     d9b:	85 c0                	test   %eax,%eax
     d9d:	75 1e                	jne    dbd <test_creating_cgroups+0x1dd>
     d9f:	e9 c0 fe ff ff       	jmp    c64 <test_creating_cgroups+0x84>
     da4:	8d 74 26 00          	lea    0x0(%esi,%eiz,1),%esi
     da8:	83 ec 08             	sub    $0x8,%esp
     dab:	83 c3 01             	add    $0x1,%ebx
     dae:	68 18 c8 00 00       	push   $0xc818
     db3:	6a 01                	push   $0x1
     db5:	e8 e6 b5 00 00       	call   c3a0 <printf>
     dba:	83 c4 10             	add    $0x10,%esp
     dbd:	83 ec 0c             	sub    $0xc,%esp
     dc0:	68 9d c9 00 00       	push   $0xc99d
     dc5:	e8 96 b0 00 00       	call   be60 <strlen>
     dca:	89 c6                	mov    %eax,%esi
     dcc:	c7 04 24 25 c8 00 00 	movl   $0xc825,(%esp)
     dd3:	e8 88 b0 00 00       	call   be60 <strlen>
     dd8:	8d 44 06 02          	lea    0x2(%esi,%eax,1),%eax
     ddc:	83 c4 10             	add    $0x10,%esp
     ddf:	39 d8                	cmp    %ebx,%eax
     de1:	77 c5                	ja     da8 <test_creating_cgroups+0x1c8>
     de3:	83 ec 0c             	sub    $0xc,%esp
     de6:	68 79 01 00 00       	push   $0x179
     deb:	68 30 c8 00 00       	push   $0xc830
     df0:	ff 75 08             	pushl  0x8(%ebp)
     df3:	68 20 d6 00 00       	push   $0xd620
     df8:	6a 01                	push   $0x1
     dfa:	e8 a1 b5 00 00       	call   c3a0 <printf>
     dff:	c7 05 40 42 01 00 01 	movl   $0x1,0x14240
     e06:	00 00 00 
     e09:	83 c4 20             	add    $0x20,%esp
     e0c:	e9 53 fe ff ff       	jmp    c64 <test_creating_cgroups+0x84>
     e11:	eb 0d                	jmp    e20 <test_deleting_cgroups>
     e13:	90                   	nop
     e14:	90                   	nop
     e15:	90                   	nop
     e16:	90                   	nop
     e17:	90                   	nop
     e18:	90                   	nop
     e19:	90                   	nop
     e1a:	90                   	nop
     e1b:	90                   	nop
     e1c:	90                   	nop
     e1d:	90                   	nop
     e1e:	90                   	nop
     e1f:	90                   	nop

00000e20 <test_deleting_cgroups>:
}

TEST(test_deleting_cgroups)
{
     e20:	55                   	push   %ebp
     e21:	89 e5                	mov    %esp,%ebp
     e23:	56                   	push   %esi
     e24:	53                   	push   %ebx
     e25:	31 db                	xor    %ebx,%ebx
    ASSERT_FALSE(unlink(TEST_1_2));
     e27:	83 ec 0c             	sub    $0xc,%esp
     e2a:	68 8d c9 00 00       	push   $0xc98d
     e2f:	e8 04 b4 00 00       	call   c238 <unlink>
     e34:	83 c4 10             	add    $0x10,%esp
     e37:	85 c0                	test   %eax,%eax
     e39:	75 1a                	jne    e55 <test_deleting_cgroups+0x35>
     e3b:	eb 73                	jmp    eb0 <test_deleting_cgroups+0x90>
     e3d:	8d 76 00             	lea    0x0(%esi),%esi
     e40:	83 ec 08             	sub    $0x8,%esp
     e43:	83 c3 01             	add    $0x1,%ebx
     e46:	68 18 c8 00 00       	push   $0xc818
     e4b:	6a 01                	push   $0x1
     e4d:	e8 4e b5 00 00       	call   c3a0 <printf>
     e52:	83 c4 10             	add    $0x10,%esp
     e55:	83 ec 0c             	sub    $0xc,%esp
     e58:	68 ad c9 00 00       	push   $0xc9ad
     e5d:	e8 fe af 00 00       	call   be60 <strlen>
     e62:	89 c6                	mov    %eax,%esi
     e64:	c7 04 24 25 c8 00 00 	movl   $0xc825,(%esp)
     e6b:	e8 f0 af 00 00       	call   be60 <strlen>
     e70:	8d 44 06 02          	lea    0x2(%esi,%eax,1),%eax
     e74:	83 c4 10             	add    $0x10,%esp
     e77:	39 d8                	cmp    %ebx,%eax
     e79:	77 c5                	ja     e40 <test_deleting_cgroups+0x20>
     e7b:	83 ec 0c             	sub    $0xc,%esp
     e7e:	68 7e 01 00 00       	push   $0x17e
     e83:	68 30 c8 00 00       	push   $0xc830
     e88:	ff 75 08             	pushl  0x8(%ebp)
     e8b:	68 5c d6 00 00       	push   $0xd65c
     e90:	6a 01                	push   $0x1
     e92:	e8 09 b5 00 00       	call   c3a0 <printf>
     e97:	c7 05 40 42 01 00 01 	movl   $0x1,0x14240
     e9e:	00 00 00 
     ea1:	83 c4 20             	add    $0x20,%esp
    ASSERT_FALSE(unlink(TEST_1_1));
    ASSERT_FALSE(unlink(TEST_2));
    ASSERT_FALSE(unlink(TEST_1));
}
     ea4:	8d 65 f8             	lea    -0x8(%ebp),%esp
     ea7:	5b                   	pop    %ebx
     ea8:	5e                   	pop    %esi
     ea9:	5d                   	pop    %ebp
     eaa:	c3                   	ret    
     eab:	90                   	nop
     eac:	8d 74 26 00          	lea    0x0(%esi,%eiz,1),%esi
}

TEST(test_deleting_cgroups)
{
    ASSERT_FALSE(unlink(TEST_1_2));
    ASSERT_FALSE(unlink(TEST_1_1));
     eb0:	83 ec 0c             	sub    $0xc,%esp
     eb3:	31 db                	xor    %ebx,%ebx
     eb5:	68 6d c9 00 00       	push   $0xc96d
     eba:	e8 79 b3 00 00       	call   c238 <unlink>
     ebf:	83 c4 10             	add    $0x10,%esp
     ec2:	85 c0                	test   %eax,%eax
     ec4:	75 1f                	jne    ee5 <test_deleting_cgroups+0xc5>
     ec6:	eb 78                	jmp    f40 <test_deleting_cgroups+0x120>
     ec8:	90                   	nop
     ec9:	8d b4 26 00 00 00 00 	lea    0x0(%esi,%eiz,1),%esi
     ed0:	83 ec 08             	sub    $0x8,%esp
     ed3:	83 c3 01             	add    $0x1,%ebx
     ed6:	68 18 c8 00 00       	push   $0xc818
     edb:	6a 01                	push   $0x1
     edd:	e8 be b4 00 00       	call   c3a0 <printf>
     ee2:	83 c4 10             	add    $0x10,%esp
     ee5:	83 ec 0c             	sub    $0xc,%esp
     ee8:	68 be c9 00 00       	push   $0xc9be
     eed:	e8 6e af 00 00       	call   be60 <strlen>
     ef2:	89 c6                	mov    %eax,%esi
     ef4:	c7 04 24 25 c8 00 00 	movl   $0xc825,(%esp)
     efb:	e8 60 af 00 00       	call   be60 <strlen>
     f00:	8d 44 06 02          	lea    0x2(%esi,%eax,1),%eax
     f04:	83 c4 10             	add    $0x10,%esp
     f07:	39 d8                	cmp    %ebx,%eax
     f09:	77 c5                	ja     ed0 <test_deleting_cgroups+0xb0>
     f0b:	83 ec 0c             	sub    $0xc,%esp
     f0e:	68 7f 01 00 00       	push   $0x17f
     f13:	68 30 c8 00 00       	push   $0xc830
     f18:	ff 75 08             	pushl  0x8(%ebp)
     f1b:	68 98 d6 00 00       	push   $0xd698
     f20:	6a 01                	push   $0x1
     f22:	e8 79 b4 00 00       	call   c3a0 <printf>
     f27:	c7 05 40 42 01 00 01 	movl   $0x1,0x14240
     f2e:	00 00 00 
     f31:	83 c4 20             	add    $0x20,%esp
    ASSERT_FALSE(unlink(TEST_2));
    ASSERT_FALSE(unlink(TEST_1));
}
     f34:	8d 65 f8             	lea    -0x8(%ebp),%esp
     f37:	5b                   	pop    %ebx
     f38:	5e                   	pop    %esi
     f39:	5d                   	pop    %ebp
     f3a:	c3                   	ret    
     f3b:	90                   	nop
     f3c:	8d 74 26 00          	lea    0x0(%esi,%eiz,1),%esi

TEST(test_deleting_cgroups)
{
    ASSERT_FALSE(unlink(TEST_1_2));
    ASSERT_FALSE(unlink(TEST_1_1));
    ASSERT_FALSE(unlink(TEST_2));
     f40:	83 ec 0c             	sub    $0xc,%esp
     f43:	31 db                	xor    %ebx,%ebx
     f45:	68 51 c9 00 00       	push   $0xc951
     f4a:	e8 e9 b2 00 00       	call   c238 <unlink>
     f4f:	83 c4 10             	add    $0x10,%esp
     f52:	85 c0                	test   %eax,%eax
     f54:	75 1f                	jne    f75 <test_deleting_cgroups+0x155>
     f56:	eb 71                	jmp    fc9 <test_deleting_cgroups+0x1a9>
     f58:	90                   	nop
     f59:	8d b4 26 00 00 00 00 	lea    0x0(%esi,%eiz,1),%esi
     f60:	83 ec 08             	sub    $0x8,%esp
     f63:	83 c3 01             	add    $0x1,%ebx
     f66:	68 18 c8 00 00       	push   $0xc818
     f6b:	6a 01                	push   $0x1
     f6d:	e8 2e b4 00 00       	call   c3a0 <printf>
     f72:	83 c4 10             	add    $0x10,%esp
     f75:	83 ec 0c             	sub    $0xc,%esp
     f78:	68 cf c9 00 00       	push   $0xc9cf
     f7d:	e8 de ae 00 00       	call   be60 <strlen>
     f82:	89 c6                	mov    %eax,%esi
     f84:	c7 04 24 25 c8 00 00 	movl   $0xc825,(%esp)
     f8b:	e8 d0 ae 00 00       	call   be60 <strlen>
     f90:	8d 44 06 02          	lea    0x2(%esi,%eax,1),%eax
     f94:	83 c4 10             	add    $0x10,%esp
     f97:	39 d8                	cmp    %ebx,%eax
     f99:	77 c5                	ja     f60 <test_deleting_cgroups+0x140>
     f9b:	83 ec 0c             	sub    $0xc,%esp
     f9e:	68 80 01 00 00       	push   $0x180
     fa3:	68 30 c8 00 00       	push   $0xc830
     fa8:	ff 75 08             	pushl  0x8(%ebp)
     fab:	68 d4 d6 00 00       	push   $0xd6d4
     fb0:	6a 01                	push   $0x1
     fb2:	e8 e9 b3 00 00       	call   c3a0 <printf>
     fb7:	c7 05 40 42 01 00 01 	movl   $0x1,0x14240
     fbe:	00 00 00 
     fc1:	83 c4 20             	add    $0x20,%esp
     fc4:	e9 db fe ff ff       	jmp    ea4 <test_deleting_cgroups+0x84>
    ASSERT_FALSE(unlink(TEST_1));
     fc9:	83 ec 0c             	sub    $0xc,%esp
     fcc:	31 db                	xor    %ebx,%ebx
     fce:	68 35 c9 00 00       	push   $0xc935
     fd3:	e8 60 b2 00 00       	call   c238 <unlink>
     fd8:	83 c4 10             	add    $0x10,%esp
     fdb:	85 c0                	test   %eax,%eax
     fdd:	75 1e                	jne    ffd <test_deleting_cgroups+0x1dd>
     fdf:	e9 c0 fe ff ff       	jmp    ea4 <test_deleting_cgroups+0x84>
     fe4:	8d 74 26 00          	lea    0x0(%esi,%eiz,1),%esi
     fe8:	83 ec 08             	sub    $0x8,%esp
     feb:	83 c3 01             	add    $0x1,%ebx
     fee:	68 18 c8 00 00       	push   $0xc818
     ff3:	6a 01                	push   $0x1
     ff5:	e8 a6 b3 00 00       	call   c3a0 <printf>
     ffa:	83 c4 10             	add    $0x10,%esp
     ffd:	83 ec 0c             	sub    $0xc,%esp
    1000:	68 de c9 00 00       	push   $0xc9de
    1005:	e8 56 ae 00 00       	call   be60 <strlen>
    100a:	89 c6                	mov    %eax,%esi
    100c:	c7 04 24 25 c8 00 00 	movl   $0xc825,(%esp)
    1013:	e8 48 ae 00 00       	call   be60 <strlen>
    1018:	8d 44 06 02          	lea    0x2(%esi,%eax,1),%eax
    101c:	83 c4 10             	add    $0x10,%esp
    101f:	39 d8                	cmp    %ebx,%eax
    1021:	77 c5                	ja     fe8 <test_deleting_cgroups+0x1c8>
    1023:	83 ec 0c             	sub    $0xc,%esp
    1026:	68 81 01 00 00       	push   $0x181
    102b:	68 30 c8 00 00       	push   $0xc830
    1030:	ff 75 08             	pushl  0x8(%ebp)
    1033:	68 0c d7 00 00       	push   $0xd70c
    1038:	6a 01                	push   $0x1
    103a:	e8 61 b3 00 00       	call   c3a0 <printf>
    103f:	c7 05 40 42 01 00 01 	movl   $0x1,0x14240
    1046:	00 00 00 
    1049:	83 c4 20             	add    $0x20,%esp
    104c:	e9 53 fe ff ff       	jmp    ea4 <test_deleting_cgroups+0x84>
    1051:	eb 0d                	jmp    1060 <test_opening_and_closing_cgroup_files>
    1053:	90                   	nop
    1054:	90                   	nop
    1055:	90                   	nop
    1056:	90                   	nop
    1057:	90                   	nop
    1058:	90                   	nop
    1059:	90                   	nop
    105a:	90                   	nop
    105b:	90                   	nop
    105c:	90                   	nop
    105d:	90                   	nop
    105e:	90                   	nop
    105f:	90                   	nop

00001060 <test_opening_and_closing_cgroup_files>:
}

TEST(test_opening_and_closing_cgroup_files)
{
    1060:	55                   	push   %ebp
    1061:	89 e5                	mov    %esp,%ebp
    1063:	57                   	push   %edi
    1064:	56                   	push   %esi
    1065:	53                   	push   %ebx
    1066:	31 db                	xor    %ebx,%ebx
    1068:	83 ec 18             	sub    $0x18,%esp
    106b:	8b 75 08             	mov    0x8(%ebp),%esi
    ASSERT_TRUE(open_close_file(TEST_1_CGROUP_PROCS));
    106e:	68 ed c9 00 00       	push   $0xc9ed
    1073:	e8 78 f1 ff ff       	call   1f0 <open_close_file>
    1078:	83 c4 10             	add    $0x10,%esp
    107b:	85 c0                	test   %eax,%eax
    107d:	74 1e                	je     109d <test_opening_and_closing_cgroup_files+0x3d>
    107f:	eb 77                	jmp    10f8 <test_opening_and_closing_cgroup_files+0x98>
    1081:	8d b4 26 00 00 00 00 	lea    0x0(%esi,%eiz,1),%esi
    1088:	83 ec 08             	sub    $0x8,%esp
    108b:	83 c3 01             	add    $0x1,%ebx
    108e:	68 18 c8 00 00       	push   $0xc818
    1093:	6a 01                	push   $0x1
    1095:	e8 06 b3 00 00       	call   c3a0 <printf>
    109a:	83 c4 10             	add    $0x10,%esp
    109d:	83 ec 0c             	sub    $0xc,%esp
    10a0:	68 44 d7 00 00       	push   $0xd744
    10a5:	e8 b6 ad 00 00       	call   be60 <strlen>
    10aa:	89 c7                	mov    %eax,%edi
    10ac:	c7 04 24 25 c8 00 00 	movl   $0xc825,(%esp)
    10b3:	e8 a8 ad 00 00       	call   be60 <strlen>
    10b8:	8d 44 07 02          	lea    0x2(%edi,%eax,1),%eax
    10bc:	83 c4 10             	add    $0x10,%esp
    10bf:	39 d8                	cmp    %ebx,%eax
    10c1:	77 c5                	ja     1088 <test_opening_and_closing_cgroup_files+0x28>
    10c3:	83 ec 0c             	sub    $0xc,%esp
    10c6:	68 86 01 00 00       	push   $0x186
    10cb:	68 30 c8 00 00       	push   $0xc830
    10d0:	56                   	push   %esi
    10d1:	68 6c d7 00 00       	push   $0xd76c
    10d6:	6a 01                	push   $0x1
    10d8:	e8 c3 b2 00 00       	call   c3a0 <printf>
    10dd:	c7 05 40 42 01 00 01 	movl   $0x1,0x14240
    10e4:	00 00 00 
    10e7:	83 c4 20             	add    $0x20,%esp
    ASSERT_TRUE(open_close_file(TEST_1_SET_FRZ));
    ASSERT_TRUE(open_close_file(TEST_1_MEM_CURRENT));
    ASSERT_TRUE(open_close_file(TEST_1_MEM_MAX));
    ASSERT_TRUE(open_close_file(TEST_1_MEM_MIN));
    ASSERT_TRUE(open_close_file(TEST_1_MEM_STAT));
}
    10ea:	8d 65 f4             	lea    -0xc(%ebp),%esp
    10ed:	5b                   	pop    %ebx
    10ee:	5e                   	pop    %esi
    10ef:	5f                   	pop    %edi
    10f0:	5d                   	pop    %ebp
    10f1:	c3                   	ret    
    10f2:	8d b6 00 00 00 00    	lea    0x0(%esi),%esi
}

TEST(test_opening_and_closing_cgroup_files)
{
    ASSERT_TRUE(open_close_file(TEST_1_CGROUP_PROCS));
    ASSERT_TRUE(open_close_file(TEST_1_CGROUP_CONTROLLERS));
    10f8:	83 ec 0c             	sub    $0xc,%esp
    10fb:	31 db                	xor    %ebx,%ebx
    10fd:	68 bc d7 00 00       	push   $0xd7bc
    1102:	e8 e9 f0 ff ff       	call   1f0 <open_close_file>
    1107:	83 c4 10             	add    $0x10,%esp
    110a:	85 c0                	test   %eax,%eax
    110c:	74 17                	je     1125 <test_opening_and_closing_cgroup_files+0xc5>
    110e:	eb 70                	jmp    1180 <test_opening_and_closing_cgroup_files+0x120>
    1110:	83 ec 08             	sub    $0x8,%esp
    1113:	83 c3 01             	add    $0x1,%ebx
    1116:	68 18 c8 00 00       	push   $0xc818
    111b:	6a 01                	push   $0x1
    111d:	e8 7e b2 00 00       	call   c3a0 <printf>
    1122:	83 c4 10             	add    $0x10,%esp
    1125:	83 ec 0c             	sub    $0xc,%esp
    1128:	68 e0 d7 00 00       	push   $0xd7e0
    112d:	e8 2e ad 00 00       	call   be60 <strlen>
    1132:	89 c7                	mov    %eax,%edi
    1134:	c7 04 24 25 c8 00 00 	movl   $0xc825,(%esp)
    113b:	e8 20 ad 00 00       	call   be60 <strlen>
    1140:	8d 44 07 02          	lea    0x2(%edi,%eax,1),%eax
    1144:	83 c4 10             	add    $0x10,%esp
    1147:	39 d8                	cmp    %ebx,%eax
    1149:	77 c5                	ja     1110 <test_opening_and_closing_cgroup_files+0xb0>
    114b:	83 ec 0c             	sub    $0xc,%esp
    114e:	68 87 01 00 00       	push   $0x187
    1153:	68 30 c8 00 00       	push   $0xc830
    1158:	56                   	push   %esi
    1159:	68 0c d8 00 00       	push   $0xd80c
    115e:	6a 01                	push   $0x1
    1160:	e8 3b b2 00 00       	call   c3a0 <printf>
    1165:	c7 05 40 42 01 00 01 	movl   $0x1,0x14240
    116c:	00 00 00 
    116f:	83 c4 20             	add    $0x20,%esp
    ASSERT_TRUE(open_close_file(TEST_1_SET_FRZ));
    ASSERT_TRUE(open_close_file(TEST_1_MEM_CURRENT));
    ASSERT_TRUE(open_close_file(TEST_1_MEM_MAX));
    ASSERT_TRUE(open_close_file(TEST_1_MEM_MIN));
    ASSERT_TRUE(open_close_file(TEST_1_MEM_STAT));
}
    1172:	8d 65 f4             	lea    -0xc(%ebp),%esp
    1175:	5b                   	pop    %ebx
    1176:	5e                   	pop    %esi
    1177:	5f                   	pop    %edi
    1178:	5d                   	pop    %ebp
    1179:	c3                   	ret    
    117a:	8d b6 00 00 00 00    	lea    0x0(%esi),%esi

TEST(test_opening_and_closing_cgroup_files)
{
    ASSERT_TRUE(open_close_file(TEST_1_CGROUP_PROCS));
    ASSERT_TRUE(open_close_file(TEST_1_CGROUP_CONTROLLERS));
    ASSERT_TRUE(open_close_file(TEST_1_CGROUP_SUBTREE_CONTROL));
    1180:	83 ec 0c             	sub    $0xc,%esp
    1183:	31 db                	xor    %ebx,%ebx
    1185:	68 b8 d3 00 00       	push   $0xd3b8
    118a:	e8 61 f0 ff ff       	call   1f0 <open_close_file>
    118f:	83 c4 10             	add    $0x10,%esp
    1192:	85 c0                	test   %eax,%eax
    1194:	74 1f                	je     11b5 <test_opening_and_closing_cgroup_files+0x155>
    1196:	eb 6f                	jmp    1207 <test_opening_and_closing_cgroup_files+0x1a7>
    1198:	90                   	nop
    1199:	8d b4 26 00 00 00 00 	lea    0x0(%esi,%eiz,1),%esi
    11a0:	83 ec 08             	sub    $0x8,%esp
    11a3:	83 c3 01             	add    $0x1,%ebx
    11a6:	68 18 c8 00 00       	push   $0xc818
    11ab:	6a 01                	push   $0x1
    11ad:	e8 ee b1 00 00       	call   c3a0 <printf>
    11b2:	83 c4 10             	add    $0x10,%esp
    11b5:	83 ec 0c             	sub    $0xc,%esp
    11b8:	68 60 d8 00 00       	push   $0xd860
    11bd:	e8 9e ac 00 00       	call   be60 <strlen>
    11c2:	89 c7                	mov    %eax,%edi
    11c4:	c7 04 24 25 c8 00 00 	movl   $0xc825,(%esp)
    11cb:	e8 90 ac 00 00       	call   be60 <strlen>
    11d0:	8d 44 07 02          	lea    0x2(%edi,%eax,1),%eax
    11d4:	83 c4 10             	add    $0x10,%esp
    11d7:	39 d8                	cmp    %ebx,%eax
    11d9:	77 c5                	ja     11a0 <test_opening_and_closing_cgroup_files+0x140>
    11db:	83 ec 0c             	sub    $0xc,%esp
    11de:	68 88 01 00 00       	push   $0x188
    11e3:	68 30 c8 00 00       	push   $0xc830
    11e8:	56                   	push   %esi
    11e9:	68 90 d8 00 00       	push   $0xd890
    11ee:	6a 01                	push   $0x1
    11f0:	e8 ab b1 00 00       	call   c3a0 <printf>
    11f5:	c7 05 40 42 01 00 01 	movl   $0x1,0x14240
    11fc:	00 00 00 
    11ff:	83 c4 20             	add    $0x20,%esp
    1202:	e9 e3 fe ff ff       	jmp    10ea <test_opening_and_closing_cgroup_files+0x8a>
    ASSERT_TRUE(open_close_file(TEST_1_CGROUP_EVENTS));
    1207:	83 ec 0c             	sub    $0xc,%esp
    120a:	31 db                	xor    %ebx,%ebx
    120c:	68 08 ca 00 00       	push   $0xca08
    1211:	e8 da ef ff ff       	call   1f0 <open_close_file>
    1216:	83 c4 10             	add    $0x10,%esp
    1219:	85 c0                	test   %eax,%eax
    121b:	74 18                	je     1235 <test_opening_and_closing_cgroup_files+0x1d5>
    121d:	eb 68                	jmp    1287 <test_opening_and_closing_cgroup_files+0x227>
    121f:	90                   	nop
    1220:	83 ec 08             	sub    $0x8,%esp
    1223:	83 c3 01             	add    $0x1,%ebx
    1226:	68 18 c8 00 00       	push   $0xc818
    122b:	6a 01                	push   $0x1
    122d:	e8 6e b1 00 00       	call   c3a0 <printf>
    1232:	83 c4 10             	add    $0x10,%esp
    1235:	83 ec 0c             	sub    $0xc,%esp
    1238:	68 e8 d8 00 00       	push   $0xd8e8
    123d:	e8 1e ac 00 00       	call   be60 <strlen>
    1242:	89 c7                	mov    %eax,%edi
    1244:	c7 04 24 25 c8 00 00 	movl   $0xc825,(%esp)
    124b:	e8 10 ac 00 00       	call   be60 <strlen>
    1250:	8d 44 07 02          	lea    0x2(%edi,%eax,1),%eax
    1254:	83 c4 10             	add    $0x10,%esp
    1257:	39 d8                	cmp    %ebx,%eax
    1259:	77 c5                	ja     1220 <test_opening_and_closing_cgroup_files+0x1c0>
    125b:	83 ec 0c             	sub    $0xc,%esp
    125e:	68 89 01 00 00       	push   $0x189
    1263:	68 30 c8 00 00       	push   $0xc830
    1268:	56                   	push   %esi
    1269:	68 10 d9 00 00       	push   $0xd910
    126e:	6a 01                	push   $0x1
    1270:	e8 2b b1 00 00       	call   c3a0 <printf>
    1275:	c7 05 40 42 01 00 01 	movl   $0x1,0x14240
    127c:	00 00 00 
    127f:	83 c4 20             	add    $0x20,%esp
    1282:	e9 63 fe ff ff       	jmp    10ea <test_opening_and_closing_cgroup_files+0x8a>
    ASSERT_TRUE(open_close_file(TEST_1_CGROUP_DESCENDANTS));
    1287:	83 ec 0c             	sub    $0xc,%esp
    128a:	31 db                	xor    %ebx,%ebx
    128c:	68 60 d9 00 00       	push   $0xd960
    1291:	e8 5a ef ff ff       	call   1f0 <open_close_file>
    1296:	83 c4 10             	add    $0x10,%esp
    1299:	85 c0                	test   %eax,%eax
    129b:	74 18                	je     12b5 <test_opening_and_closing_cgroup_files+0x255>
    129d:	eb 68                	jmp    1307 <test_opening_and_closing_cgroup_files+0x2a7>
    129f:	90                   	nop
    12a0:	83 ec 08             	sub    $0x8,%esp
    12a3:	83 c3 01             	add    $0x1,%ebx
    12a6:	68 18 c8 00 00       	push   $0xc818
    12ab:	6a 01                	push   $0x1
    12ad:	e8 ee b0 00 00       	call   c3a0 <printf>
    12b2:	83 c4 10             	add    $0x10,%esp
    12b5:	83 ec 0c             	sub    $0xc,%esp
    12b8:	68 88 d9 00 00       	push   $0xd988
    12bd:	e8 9e ab 00 00       	call   be60 <strlen>
    12c2:	89 c7                	mov    %eax,%edi
    12c4:	c7 04 24 25 c8 00 00 	movl   $0xc825,(%esp)
    12cb:	e8 90 ab 00 00       	call   be60 <strlen>
    12d0:	8d 44 07 02          	lea    0x2(%edi,%eax,1),%eax
    12d4:	83 c4 10             	add    $0x10,%esp
    12d7:	39 d8                	cmp    %ebx,%eax
    12d9:	77 c5                	ja     12a0 <test_opening_and_closing_cgroup_files+0x240>
    12db:	83 ec 0c             	sub    $0xc,%esp
    12de:	68 8a 01 00 00       	push   $0x18a
    12e3:	68 30 c8 00 00       	push   $0xc830
    12e8:	56                   	push   %esi
    12e9:	68 b4 d9 00 00       	push   $0xd9b4
    12ee:	6a 01                	push   $0x1
    12f0:	e8 ab b0 00 00       	call   c3a0 <printf>
    12f5:	c7 05 40 42 01 00 01 	movl   $0x1,0x14240
    12fc:	00 00 00 
    12ff:	83 c4 20             	add    $0x20,%esp
    1302:	e9 e3 fd ff ff       	jmp    10ea <test_opening_and_closing_cgroup_files+0x8a>
    ASSERT_TRUE(open_close_file(TEST_1_CGROUP_MAX_DEPTH));
    1307:	83 ec 0c             	sub    $0xc,%esp
    130a:	31 db                	xor    %ebx,%ebx
    130c:	68 08 da 00 00       	push   $0xda08
    1311:	e8 da ee ff ff       	call   1f0 <open_close_file>
    1316:	83 c4 10             	add    $0x10,%esp
    1319:	85 c0                	test   %eax,%eax
    131b:	74 18                	je     1335 <test_opening_and_closing_cgroup_files+0x2d5>
    131d:	eb 68                	jmp    1387 <test_opening_and_closing_cgroup_files+0x327>
    131f:	90                   	nop
    1320:	83 ec 08             	sub    $0x8,%esp
    1323:	83 c3 01             	add    $0x1,%ebx
    1326:	68 18 c8 00 00       	push   $0xc818
    132b:	6a 01                	push   $0x1
    132d:	e8 6e b0 00 00       	call   c3a0 <printf>
    1332:	83 c4 10             	add    $0x10,%esp
    1335:	83 ec 0c             	sub    $0xc,%esp
    1338:	68 28 da 00 00       	push   $0xda28
    133d:	e8 1e ab 00 00       	call   be60 <strlen>
    1342:	89 c7                	mov    %eax,%edi
    1344:	c7 04 24 25 c8 00 00 	movl   $0xc825,(%esp)
    134b:	e8 10 ab 00 00       	call   be60 <strlen>
    1350:	8d 44 07 02          	lea    0x2(%edi,%eax,1),%eax
    1354:	83 c4 10             	add    $0x10,%esp
    1357:	39 d8                	cmp    %ebx,%eax
    1359:	77 c5                	ja     1320 <test_opening_and_closing_cgroup_files+0x2c0>
    135b:	83 ec 0c             	sub    $0xc,%esp
    135e:	68 8b 01 00 00       	push   $0x18b
    1363:	68 30 c8 00 00       	push   $0xc830
    1368:	56                   	push   %esi
    1369:	68 54 da 00 00       	push   $0xda54
    136e:	6a 01                	push   $0x1
    1370:	e8 2b b0 00 00       	call   c3a0 <printf>
    1375:	c7 05 40 42 01 00 01 	movl   $0x1,0x14240
    137c:	00 00 00 
    137f:	83 c4 20             	add    $0x20,%esp
    1382:	e9 63 fd ff ff       	jmp    10ea <test_opening_and_closing_cgroup_files+0x8a>
    ASSERT_TRUE(open_close_file(TEST_1_CGROUP_STAT));
    1387:	83 ec 0c             	sub    $0xc,%esp
    138a:	31 db                	xor    %ebx,%ebx
    138c:	68 24 ca 00 00       	push   $0xca24
    1391:	e8 5a ee ff ff       	call   1f0 <open_close_file>
    1396:	83 c4 10             	add    $0x10,%esp
    1399:	85 c0                	test   %eax,%eax
    139b:	74 18                	je     13b5 <test_opening_and_closing_cgroup_files+0x355>
    139d:	eb 68                	jmp    1407 <test_opening_and_closing_cgroup_files+0x3a7>
    139f:	90                   	nop
    13a0:	83 ec 08             	sub    $0x8,%esp
    13a3:	83 c3 01             	add    $0x1,%ebx
    13a6:	68 18 c8 00 00       	push   $0xc818
    13ab:	6a 01                	push   $0x1
    13ad:	e8 ee af 00 00       	call   c3a0 <printf>
    13b2:	83 c4 10             	add    $0x10,%esp
    13b5:	83 ec 0c             	sub    $0xc,%esp
    13b8:	68 a8 da 00 00       	push   $0xdaa8
    13bd:	e8 9e aa 00 00       	call   be60 <strlen>
    13c2:	89 c7                	mov    %eax,%edi
    13c4:	c7 04 24 25 c8 00 00 	movl   $0xc825,(%esp)
    13cb:	e8 90 aa 00 00       	call   be60 <strlen>
    13d0:	8d 44 07 02          	lea    0x2(%edi,%eax,1),%eax
    13d4:	83 c4 10             	add    $0x10,%esp
    13d7:	39 d8                	cmp    %ebx,%eax
    13d9:	77 c5                	ja     13a0 <test_opening_and_closing_cgroup_files+0x340>
    13db:	83 ec 0c             	sub    $0xc,%esp
    13de:	68 8c 01 00 00       	push   $0x18c
    13e3:	68 30 c8 00 00       	push   $0xc830
    13e8:	56                   	push   %esi
    13e9:	68 cc da 00 00       	push   $0xdacc
    13ee:	6a 01                	push   $0x1
    13f0:	e8 ab af 00 00       	call   c3a0 <printf>
    13f5:	c7 05 40 42 01 00 01 	movl   $0x1,0x14240
    13fc:	00 00 00 
    13ff:	83 c4 20             	add    $0x20,%esp
    1402:	e9 e3 fc ff ff       	jmp    10ea <test_opening_and_closing_cgroup_files+0x8a>
    ASSERT_TRUE(open_close_file(TEST_1_CPU_MAX));
    1407:	83 ec 0c             	sub    $0xc,%esp
    140a:	68 3e ca 00 00       	push   $0xca3e
    140f:	e8 dc ed ff ff       	call   1f0 <open_close_file>
    1414:	83 c4 10             	add    $0x10,%esp
    1417:	85 c0                	test   %eax,%eax
    1419:	75 6c                	jne    1487 <test_opening_and_closing_cgroup_files+0x427>
    141b:	31 db                	xor    %ebx,%ebx
    141d:	eb 16                	jmp    1435 <test_opening_and_closing_cgroup_files+0x3d5>
    141f:	90                   	nop
    1420:	83 ec 08             	sub    $0x8,%esp
    1423:	83 c3 01             	add    $0x1,%ebx
    1426:	68 18 c8 00 00       	push   $0xc818
    142b:	6a 01                	push   $0x1
    142d:	e8 6e af 00 00       	call   c3a0 <printf>
    1432:	83 c4 10             	add    $0x10,%esp
    1435:	83 ec 0c             	sub    $0xc,%esp
    1438:	68 1c db 00 00       	push   $0xdb1c
    143d:	e8 1e aa 00 00       	call   be60 <strlen>
    1442:	89 c7                	mov    %eax,%edi
    1444:	c7 04 24 25 c8 00 00 	movl   $0xc825,(%esp)
    144b:	e8 10 aa 00 00       	call   be60 <strlen>
    1450:	8d 44 07 02          	lea    0x2(%edi,%eax,1),%eax
    1454:	83 c4 10             	add    $0x10,%esp
    1457:	39 d8                	cmp    %ebx,%eax
    1459:	77 c5                	ja     1420 <test_opening_and_closing_cgroup_files+0x3c0>
    145b:	83 ec 0c             	sub    $0xc,%esp
    145e:	68 8d 01 00 00       	push   $0x18d
    1463:	68 30 c8 00 00       	push   $0xc830
    1468:	56                   	push   %esi
    1469:	68 3c db 00 00       	push   $0xdb3c
    146e:	6a 01                	push   $0x1
    1470:	e8 2b af 00 00       	call   c3a0 <printf>
    1475:	c7 05 40 42 01 00 01 	movl   $0x1,0x14240
    147c:	00 00 00 
    147f:	83 c4 20             	add    $0x20,%esp
    1482:	e9 63 fc ff ff       	jmp    10ea <test_opening_and_closing_cgroup_files+0x8a>
    ASSERT_TRUE(open_close_file(TEST_1_CPU_WEIGHT));
    1487:	83 ec 0c             	sub    $0xc,%esp
    148a:	68 54 ca 00 00       	push   $0xca54
    148f:	e8 5c ed ff ff       	call   1f0 <open_close_file>
    1494:	83 c4 10             	add    $0x10,%esp
    1497:	85 c0                	test   %eax,%eax
    1499:	75 6a                	jne    1505 <test_opening_and_closing_cgroup_files+0x4a5>
    149b:	31 db                	xor    %ebx,%ebx
    149d:	83 ec 0c             	sub    $0xc,%esp
    14a0:	68 88 db 00 00       	push   $0xdb88
    14a5:	e8 b6 a9 00 00       	call   be60 <strlen>
    14aa:	89 c7                	mov    %eax,%edi
    14ac:	c7 04 24 25 c8 00 00 	movl   $0xc825,(%esp)
    14b3:	e8 a8 a9 00 00       	call   be60 <strlen>
    14b8:	8d 44 07 02          	lea    0x2(%edi,%eax,1),%eax
    14bc:	83 c4 10             	add    $0x10,%esp
    14bf:	39 d8                	cmp    %ebx,%eax
    14c1:	76 16                	jbe    14d9 <test_opening_and_closing_cgroup_files+0x479>
    14c3:	50                   	push   %eax
    14c4:	50                   	push   %eax
    14c5:	83 c3 01             	add    $0x1,%ebx
    14c8:	68 18 c8 00 00       	push   $0xc818
    14cd:	6a 01                	push   $0x1
    14cf:	e8 cc ae 00 00       	call   c3a0 <printf>
    14d4:	83 c4 10             	add    $0x10,%esp
    14d7:	eb c4                	jmp    149d <test_opening_and_closing_cgroup_files+0x43d>
    14d9:	83 ec 0c             	sub    $0xc,%esp
    14dc:	68 8e 01 00 00       	push   $0x18e
    14e1:	68 30 c8 00 00       	push   $0xc830
    14e6:	56                   	push   %esi
    14e7:	68 ac db 00 00       	push   $0xdbac
    14ec:	6a 01                	push   $0x1
    14ee:	e8 ad ae 00 00       	call   c3a0 <printf>
    14f3:	c7 05 40 42 01 00 01 	movl   $0x1,0x14240
    14fa:	00 00 00 
    14fd:	83 c4 20             	add    $0x20,%esp
    1500:	e9 e5 fb ff ff       	jmp    10ea <test_opening_and_closing_cgroup_files+0x8a>
    ASSERT_TRUE(open_close_file(TEST_1_CPU_STAT));
    1505:	83 ec 0c             	sub    $0xc,%esp
    1508:	68 6d ca 00 00       	push   $0xca6d
    150d:	e8 de ec ff ff       	call   1f0 <open_close_file>
    1512:	83 c4 10             	add    $0x10,%esp
    1515:	85 c0                	test   %eax,%eax
    1517:	75 3e                	jne    1557 <test_opening_and_closing_cgroup_files+0x4f7>
    1519:	31 db                	xor    %ebx,%ebx
    151b:	83 ec 0c             	sub    $0xc,%esp
    151e:	68 f8 db 00 00       	push   $0xdbf8
    1523:	e8 38 a9 00 00       	call   be60 <strlen>
    1528:	89 c7                	mov    %eax,%edi
    152a:	c7 04 24 25 c8 00 00 	movl   $0xc825,(%esp)
    1531:	e8 2a a9 00 00       	call   be60 <strlen>
    1536:	8d 44 07 02          	lea    0x2(%edi,%eax,1),%eax
    153a:	83 c4 10             	add    $0x10,%esp
    153d:	39 d8                	cmp    %ebx,%eax
    153f:	76 6c                	jbe    15ad <test_opening_and_closing_cgroup_files+0x54d>
    1541:	50                   	push   %eax
    1542:	50                   	push   %eax
    1543:	83 c3 01             	add    $0x1,%ebx
    1546:	68 18 c8 00 00       	push   $0xc818
    154b:	6a 01                	push   $0x1
    154d:	e8 4e ae 00 00       	call   c3a0 <printf>
    1552:	83 c4 10             	add    $0x10,%esp
    1555:	eb c4                	jmp    151b <test_opening_and_closing_cgroup_files+0x4bb>
    ASSERT_TRUE(open_close_file(TEST_1_PID_MAX));
    1557:	83 ec 0c             	sub    $0xc,%esp
    155a:	68 84 ca 00 00       	push   $0xca84
    155f:	e8 8c ec ff ff       	call   1f0 <open_close_file>
    1564:	83 c4 10             	add    $0x10,%esp
    1567:	85 c0                	test   %eax,%eax
    1569:	0f 85 96 00 00 00    	jne    1605 <test_opening_and_closing_cgroup_files+0x5a5>
    156f:	31 db                	xor    %ebx,%ebx
    1571:	83 ec 0c             	sub    $0xc,%esp
    1574:	68 68 dc 00 00       	push   $0xdc68
    1579:	e8 e2 a8 00 00       	call   be60 <strlen>
    157e:	89 c7                	mov    %eax,%edi
    1580:	c7 04 24 25 c8 00 00 	movl   $0xc825,(%esp)
    1587:	e8 d4 a8 00 00       	call   be60 <strlen>
    158c:	8d 44 07 02          	lea    0x2(%edi,%eax,1),%eax
    1590:	83 c4 10             	add    $0x10,%esp
    1593:	39 d8                	cmp    %ebx,%eax
    1595:	76 42                	jbe    15d9 <test_opening_and_closing_cgroup_files+0x579>
    1597:	50                   	push   %eax
    1598:	50                   	push   %eax
    1599:	83 c3 01             	add    $0x1,%ebx
    159c:	68 18 c8 00 00       	push   $0xc818
    15a1:	6a 01                	push   $0x1
    15a3:	e8 f8 ad 00 00       	call   c3a0 <printf>
    15a8:	83 c4 10             	add    $0x10,%esp
    15ab:	eb c4                	jmp    1571 <test_opening_and_closing_cgroup_files+0x511>
    ASSERT_TRUE(open_close_file(TEST_1_CGROUP_DESCENDANTS));
    ASSERT_TRUE(open_close_file(TEST_1_CGROUP_MAX_DEPTH));
    ASSERT_TRUE(open_close_file(TEST_1_CGROUP_STAT));
    ASSERT_TRUE(open_close_file(TEST_1_CPU_MAX));
    ASSERT_TRUE(open_close_file(TEST_1_CPU_WEIGHT));
    ASSERT_TRUE(open_close_file(TEST_1_CPU_STAT));
    15ad:	83 ec 0c             	sub    $0xc,%esp
    15b0:	68 8f 01 00 00       	push   $0x18f
    15b5:	68 30 c8 00 00       	push   $0xc830
    15ba:	56                   	push   %esi
    15bb:	68 1c dc 00 00       	push   $0xdc1c
    15c0:	6a 01                	push   $0x1
    15c2:	e8 d9 ad 00 00       	call   c3a0 <printf>
    15c7:	c7 05 40 42 01 00 01 	movl   $0x1,0x14240
    15ce:	00 00 00 
    15d1:	83 c4 20             	add    $0x20,%esp
    15d4:	e9 11 fb ff ff       	jmp    10ea <test_opening_and_closing_cgroup_files+0x8a>
    ASSERT_TRUE(open_close_file(TEST_1_PID_MAX));
    15d9:	83 ec 0c             	sub    $0xc,%esp
    15dc:	68 90 01 00 00       	push   $0x190
    15e1:	68 30 c8 00 00       	push   $0xc830
    15e6:	56                   	push   %esi
    15e7:	68 88 dc 00 00       	push   $0xdc88
    15ec:	6a 01                	push   $0x1
    15ee:	e8 ad ad 00 00       	call   c3a0 <printf>
    15f3:	c7 05 40 42 01 00 01 	movl   $0x1,0x14240
    15fa:	00 00 00 
    15fd:	83 c4 20             	add    $0x20,%esp
    1600:	e9 e5 fa ff ff       	jmp    10ea <test_opening_and_closing_cgroup_files+0x8a>
    ASSERT_TRUE(open_close_file(TEST_1_PID_CURRENT));
    1605:	83 ec 0c             	sub    $0xc,%esp
    1608:	68 9a ca 00 00       	push   $0xca9a
    160d:	e8 de eb ff ff       	call   1f0 <open_close_file>
    1612:	83 c4 10             	add    $0x10,%esp
    1615:	85 c0                	test   %eax,%eax
    1617:	75 3e                	jne    1657 <test_opening_and_closing_cgroup_files+0x5f7>
    1619:	31 db                	xor    %ebx,%ebx
    161b:	83 ec 0c             	sub    $0xc,%esp
    161e:	68 d4 dc 00 00       	push   $0xdcd4
    1623:	e8 38 a8 00 00       	call   be60 <strlen>
    1628:	89 c7                	mov    %eax,%edi
    162a:	c7 04 24 25 c8 00 00 	movl   $0xc825,(%esp)
    1631:	e8 2a a8 00 00       	call   be60 <strlen>
    1636:	8d 44 07 02          	lea    0x2(%edi,%eax,1),%eax
    163a:	83 c4 10             	add    $0x10,%esp
    163d:	39 d8                	cmp    %ebx,%eax
    163f:	76 6c                	jbe    16ad <test_opening_and_closing_cgroup_files+0x64d>
    1641:	50                   	push   %eax
    1642:	50                   	push   %eax
    1643:	83 c3 01             	add    $0x1,%ebx
    1646:	68 18 c8 00 00       	push   $0xc818
    164b:	6a 01                	push   $0x1
    164d:	e8 4e ad 00 00       	call   c3a0 <printf>
    1652:	83 c4 10             	add    $0x10,%esp
    1655:	eb c4                	jmp    161b <test_opening_and_closing_cgroup_files+0x5bb>
    ASSERT_TRUE(open_close_file(TEST_1_SET_CPU));
    1657:	83 ec 0c             	sub    $0xc,%esp
    165a:	68 b4 ca 00 00       	push   $0xcab4
    165f:	e8 8c eb ff ff       	call   1f0 <open_close_file>
    1664:	83 c4 10             	add    $0x10,%esp
    1667:	85 c0                	test   %eax,%eax
    1669:	0f 85 96 00 00 00    	jne    1705 <test_opening_and_closing_cgroup_files+0x6a5>
    166f:	31 db                	xor    %ebx,%ebx
    1671:	83 ec 0c             	sub    $0xc,%esp
    1674:	68 48 dd 00 00       	push   $0xdd48
    1679:	e8 e2 a7 00 00       	call   be60 <strlen>
    167e:	89 c7                	mov    %eax,%edi
    1680:	c7 04 24 25 c8 00 00 	movl   $0xc825,(%esp)
    1687:	e8 d4 a7 00 00       	call   be60 <strlen>
    168c:	8d 44 07 02          	lea    0x2(%edi,%eax,1),%eax
    1690:	83 c4 10             	add    $0x10,%esp
    1693:	39 d8                	cmp    %ebx,%eax
    1695:	76 42                	jbe    16d9 <test_opening_and_closing_cgroup_files+0x679>
    1697:	50                   	push   %eax
    1698:	50                   	push   %eax
    1699:	83 c3 01             	add    $0x1,%ebx
    169c:	68 18 c8 00 00       	push   $0xc818
    16a1:	6a 01                	push   $0x1
    16a3:	e8 f8 ac 00 00       	call   c3a0 <printf>
    16a8:	83 c4 10             	add    $0x10,%esp
    16ab:	eb c4                	jmp    1671 <test_opening_and_closing_cgroup_files+0x611>
    ASSERT_TRUE(open_close_file(TEST_1_CGROUP_STAT));
    ASSERT_TRUE(open_close_file(TEST_1_CPU_MAX));
    ASSERT_TRUE(open_close_file(TEST_1_CPU_WEIGHT));
    ASSERT_TRUE(open_close_file(TEST_1_CPU_STAT));
    ASSERT_TRUE(open_close_file(TEST_1_PID_MAX));
    ASSERT_TRUE(open_close_file(TEST_1_PID_CURRENT));
    16ad:	83 ec 0c             	sub    $0xc,%esp
    16b0:	68 91 01 00 00       	push   $0x191
    16b5:	68 30 c8 00 00       	push   $0xc830
    16ba:	56                   	push   %esi
    16bb:	68 f8 dc 00 00       	push   $0xdcf8
    16c0:	6a 01                	push   $0x1
    16c2:	e8 d9 ac 00 00       	call   c3a0 <printf>
    16c7:	c7 05 40 42 01 00 01 	movl   $0x1,0x14240
    16ce:	00 00 00 
    16d1:	83 c4 20             	add    $0x20,%esp
    16d4:	e9 11 fa ff ff       	jmp    10ea <test_opening_and_closing_cgroup_files+0x8a>
    ASSERT_TRUE(open_close_file(TEST_1_SET_CPU));
    16d9:	83 ec 0c             	sub    $0xc,%esp
    16dc:	68 92 01 00 00       	push   $0x192
    16e1:	68 30 c8 00 00       	push   $0xc830
    16e6:	56                   	push   %esi
    16e7:	68 68 dd 00 00       	push   $0xdd68
    16ec:	6a 01                	push   $0x1
    16ee:	e8 ad ac 00 00       	call   c3a0 <printf>
    16f3:	c7 05 40 42 01 00 01 	movl   $0x1,0x14240
    16fa:	00 00 00 
    16fd:	83 c4 20             	add    $0x20,%esp
    1700:	e9 e5 f9 ff ff       	jmp    10ea <test_opening_and_closing_cgroup_files+0x8a>
    ASSERT_TRUE(open_close_file(TEST_1_SET_FRZ));
    1705:	83 ec 0c             	sub    $0xc,%esp
    1708:	68 ce ca 00 00       	push   $0xcace
    170d:	e8 de ea ff ff       	call   1f0 <open_close_file>
    1712:	83 c4 10             	add    $0x10,%esp
    1715:	85 c0                	test   %eax,%eax
    1717:	75 3e                	jne    1757 <test_opening_and_closing_cgroup_files+0x6f7>
    1719:	31 db                	xor    %ebx,%ebx
    171b:	83 ec 0c             	sub    $0xc,%esp
    171e:	68 b4 dd 00 00       	push   $0xddb4
    1723:	e8 38 a7 00 00       	call   be60 <strlen>
    1728:	89 c7                	mov    %eax,%edi
    172a:	c7 04 24 25 c8 00 00 	movl   $0xc825,(%esp)
    1731:	e8 2a a7 00 00       	call   be60 <strlen>
    1736:	8d 44 07 02          	lea    0x2(%edi,%eax,1),%eax
    173a:	83 c4 10             	add    $0x10,%esp
    173d:	39 d8                	cmp    %ebx,%eax
    173f:	76 6c                	jbe    17ad <test_opening_and_closing_cgroup_files+0x74d>
    1741:	50                   	push   %eax
    1742:	50                   	push   %eax
    1743:	83 c3 01             	add    $0x1,%ebx
    1746:	68 18 c8 00 00       	push   $0xc818
    174b:	6a 01                	push   $0x1
    174d:	e8 4e ac 00 00       	call   c3a0 <printf>
    1752:	83 c4 10             	add    $0x10,%esp
    1755:	eb c4                	jmp    171b <test_opening_and_closing_cgroup_files+0x6bb>
    ASSERT_TRUE(open_close_file(TEST_1_MEM_CURRENT));
    1757:	83 ec 0c             	sub    $0xc,%esp
    175a:	68 ea ca 00 00       	push   $0xcaea
    175f:	e8 8c ea ff ff       	call   1f0 <open_close_file>
    1764:	83 c4 10             	add    $0x10,%esp
    1767:	85 c0                	test   %eax,%eax
    1769:	0f 85 96 00 00 00    	jne    1805 <test_opening_and_closing_cgroup_files+0x7a5>
    176f:	31 db                	xor    %ebx,%ebx
    1771:	83 ec 0c             	sub    $0xc,%esp
    1774:	68 20 de 00 00       	push   $0xde20
    1779:	e8 e2 a6 00 00       	call   be60 <strlen>
    177e:	89 c7                	mov    %eax,%edi
    1780:	c7 04 24 25 c8 00 00 	movl   $0xc825,(%esp)
    1787:	e8 d4 a6 00 00       	call   be60 <strlen>
    178c:	8d 44 07 02          	lea    0x2(%edi,%eax,1),%eax
    1790:	83 c4 10             	add    $0x10,%esp
    1793:	39 d8                	cmp    %ebx,%eax
    1795:	76 42                	jbe    17d9 <test_opening_and_closing_cgroup_files+0x779>
    1797:	57                   	push   %edi
    1798:	57                   	push   %edi
    1799:	83 c3 01             	add    $0x1,%ebx
    179c:	68 18 c8 00 00       	push   $0xc818
    17a1:	6a 01                	push   $0x1
    17a3:	e8 f8 ab 00 00       	call   c3a0 <printf>
    17a8:	83 c4 10             	add    $0x10,%esp
    17ab:	eb c4                	jmp    1771 <test_opening_and_closing_cgroup_files+0x711>
    ASSERT_TRUE(open_close_file(TEST_1_CPU_WEIGHT));
    ASSERT_TRUE(open_close_file(TEST_1_CPU_STAT));
    ASSERT_TRUE(open_close_file(TEST_1_PID_MAX));
    ASSERT_TRUE(open_close_file(TEST_1_PID_CURRENT));
    ASSERT_TRUE(open_close_file(TEST_1_SET_CPU));
    ASSERT_TRUE(open_close_file(TEST_1_SET_FRZ));
    17ad:	83 ec 0c             	sub    $0xc,%esp
    17b0:	68 93 01 00 00       	push   $0x193
    17b5:	68 30 c8 00 00       	push   $0xc830
    17ba:	56                   	push   %esi
    17bb:	68 d4 dd 00 00       	push   $0xddd4
    17c0:	6a 01                	push   $0x1
    17c2:	e8 d9 ab 00 00       	call   c3a0 <printf>
    17c7:	c7 05 40 42 01 00 01 	movl   $0x1,0x14240
    17ce:	00 00 00 
    17d1:	83 c4 20             	add    $0x20,%esp
    17d4:	e9 11 f9 ff ff       	jmp    10ea <test_opening_and_closing_cgroup_files+0x8a>
    ASSERT_TRUE(open_close_file(TEST_1_MEM_CURRENT));
    17d9:	83 ec 0c             	sub    $0xc,%esp
    17dc:	68 94 01 00 00       	push   $0x194
    17e1:	68 30 c8 00 00       	push   $0xc830
    17e6:	56                   	push   %esi
    17e7:	68 44 de 00 00       	push   $0xde44
    17ec:	6a 01                	push   $0x1
    17ee:	e8 ad ab 00 00       	call   c3a0 <printf>
    17f3:	c7 05 40 42 01 00 01 	movl   $0x1,0x14240
    17fa:	00 00 00 
    17fd:	83 c4 20             	add    $0x20,%esp
    1800:	e9 e5 f8 ff ff       	jmp    10ea <test_opening_and_closing_cgroup_files+0x8a>
    ASSERT_TRUE(open_close_file(TEST_1_MEM_MAX));
    1805:	83 ec 0c             	sub    $0xc,%esp
    1808:	68 07 cb 00 00       	push   $0xcb07
    180d:	e8 de e9 ff ff       	call   1f0 <open_close_file>
    1812:	83 c4 10             	add    $0x10,%esp
    1815:	85 c0                	test   %eax,%eax
    1817:	75 3e                	jne    1857 <test_opening_and_closing_cgroup_files+0x7f7>
    1819:	31 db                	xor    %ebx,%ebx
    181b:	83 ec 0c             	sub    $0xc,%esp
    181e:	68 94 de 00 00       	push   $0xde94
    1823:	e8 38 a6 00 00       	call   be60 <strlen>
    1828:	89 c7                	mov    %eax,%edi
    182a:	c7 04 24 25 c8 00 00 	movl   $0xc825,(%esp)
    1831:	e8 2a a6 00 00       	call   be60 <strlen>
    1836:	8d 44 07 02          	lea    0x2(%edi,%eax,1),%eax
    183a:	83 c4 10             	add    $0x10,%esp
    183d:	39 d8                	cmp    %ebx,%eax
    183f:	76 6c                	jbe    18ad <test_opening_and_closing_cgroup_files+0x84d>
    1841:	51                   	push   %ecx
    1842:	51                   	push   %ecx
    1843:	83 c3 01             	add    $0x1,%ebx
    1846:	68 18 c8 00 00       	push   $0xc818
    184b:	6a 01                	push   $0x1
    184d:	e8 4e ab 00 00       	call   c3a0 <printf>
    1852:	83 c4 10             	add    $0x10,%esp
    1855:	eb c4                	jmp    181b <test_opening_and_closing_cgroup_files+0x7bb>
    ASSERT_TRUE(open_close_file(TEST_1_MEM_MIN));
    1857:	83 ec 0c             	sub    $0xc,%esp
    185a:	68 20 cb 00 00       	push   $0xcb20
    185f:	e8 8c e9 ff ff       	call   1f0 <open_close_file>
    1864:	83 c4 10             	add    $0x10,%esp
    1867:	85 c0                	test   %eax,%eax
    1869:	0f 85 96 00 00 00    	jne    1905 <test_opening_and_closing_cgroup_files+0x8a5>
    186f:	31 db                	xor    %ebx,%ebx
    1871:	83 ec 0c             	sub    $0xc,%esp
    1874:	68 00 df 00 00       	push   $0xdf00
    1879:	e8 e2 a5 00 00       	call   be60 <strlen>
    187e:	89 c7                	mov    %eax,%edi
    1880:	c7 04 24 25 c8 00 00 	movl   $0xc825,(%esp)
    1887:	e8 d4 a5 00 00       	call   be60 <strlen>
    188c:	8d 44 07 02          	lea    0x2(%edi,%eax,1),%eax
    1890:	83 c4 10             	add    $0x10,%esp
    1893:	39 d8                	cmp    %ebx,%eax
    1895:	76 42                	jbe    18d9 <test_opening_and_closing_cgroup_files+0x879>
    1897:	52                   	push   %edx
    1898:	52                   	push   %edx
    1899:	83 c3 01             	add    $0x1,%ebx
    189c:	68 18 c8 00 00       	push   $0xc818
    18a1:	6a 01                	push   $0x1
    18a3:	e8 f8 aa 00 00       	call   c3a0 <printf>
    18a8:	83 c4 10             	add    $0x10,%esp
    18ab:	eb c4                	jmp    1871 <test_opening_and_closing_cgroup_files+0x811>
    ASSERT_TRUE(open_close_file(TEST_1_PID_MAX));
    ASSERT_TRUE(open_close_file(TEST_1_PID_CURRENT));
    ASSERT_TRUE(open_close_file(TEST_1_SET_CPU));
    ASSERT_TRUE(open_close_file(TEST_1_SET_FRZ));
    ASSERT_TRUE(open_close_file(TEST_1_MEM_CURRENT));
    ASSERT_TRUE(open_close_file(TEST_1_MEM_MAX));
    18ad:	83 ec 0c             	sub    $0xc,%esp
    18b0:	68 95 01 00 00       	push   $0x195
    18b5:	68 30 c8 00 00       	push   $0xc830
    18ba:	56                   	push   %esi
    18bb:	68 b4 de 00 00       	push   $0xdeb4
    18c0:	6a 01                	push   $0x1
    18c2:	e8 d9 aa 00 00       	call   c3a0 <printf>
    18c7:	c7 05 40 42 01 00 01 	movl   $0x1,0x14240
    18ce:	00 00 00 
    18d1:	83 c4 20             	add    $0x20,%esp
    18d4:	e9 11 f8 ff ff       	jmp    10ea <test_opening_and_closing_cgroup_files+0x8a>
    ASSERT_TRUE(open_close_file(TEST_1_MEM_MIN));
    18d9:	83 ec 0c             	sub    $0xc,%esp
    18dc:	68 96 01 00 00       	push   $0x196
    18e1:	68 30 c8 00 00       	push   $0xc830
    18e6:	56                   	push   %esi
    18e7:	68 20 df 00 00       	push   $0xdf20
    18ec:	6a 01                	push   $0x1
    18ee:	e8 ad aa 00 00       	call   c3a0 <printf>
    18f3:	c7 05 40 42 01 00 01 	movl   $0x1,0x14240
    18fa:	00 00 00 
    18fd:	83 c4 20             	add    $0x20,%esp
    1900:	e9 e5 f7 ff ff       	jmp    10ea <test_opening_and_closing_cgroup_files+0x8a>
    ASSERT_TRUE(open_close_file(TEST_1_MEM_STAT));
    1905:	83 ec 0c             	sub    $0xc,%esp
    1908:	31 db                	xor    %ebx,%ebx
    190a:	68 39 cb 00 00       	push   $0xcb39
    190f:	e8 dc e8 ff ff       	call   1f0 <open_close_file>
    1914:	83 c4 10             	add    $0x10,%esp
    1917:	85 c0                	test   %eax,%eax
    1919:	0f 85 cb f7 ff ff    	jne    10ea <test_opening_and_closing_cgroup_files+0x8a>
    191f:	83 ec 0c             	sub    $0xc,%esp
    1922:	68 6c df 00 00       	push   $0xdf6c
    1927:	e8 34 a5 00 00       	call   be60 <strlen>
    192c:	89 c7                	mov    %eax,%edi
    192e:	c7 04 24 25 c8 00 00 	movl   $0xc825,(%esp)
    1935:	e8 26 a5 00 00       	call   be60 <strlen>
    193a:	8d 44 07 02          	lea    0x2(%edi,%eax,1),%eax
    193e:	83 c4 10             	add    $0x10,%esp
    1941:	39 d8                	cmp    %ebx,%eax
    1943:	76 16                	jbe    195b <test_opening_and_closing_cgroup_files+0x8fb>
    1945:	50                   	push   %eax
    1946:	50                   	push   %eax
    1947:	83 c3 01             	add    $0x1,%ebx
    194a:	68 18 c8 00 00       	push   $0xc818
    194f:	6a 01                	push   $0x1
    1951:	e8 4a aa 00 00       	call   c3a0 <printf>
    1956:	83 c4 10             	add    $0x10,%esp
    1959:	eb c4                	jmp    191f <test_opening_and_closing_cgroup_files+0x8bf>
    195b:	83 ec 0c             	sub    $0xc,%esp
    195e:	68 97 01 00 00       	push   $0x197
    1963:	68 30 c8 00 00       	push   $0xc830
    1968:	56                   	push   %esi
    1969:	68 90 df 00 00       	push   $0xdf90
    196e:	6a 01                	push   $0x1
    1970:	e8 2b aa 00 00       	call   c3a0 <printf>
    1975:	c7 05 40 42 01 00 01 	movl   $0x1,0x14240
    197c:	00 00 00 
    197f:	83 c4 20             	add    $0x20,%esp
    1982:	e9 63 f7 ff ff       	jmp    10ea <test_opening_and_closing_cgroup_files+0x8a>
    1987:	89 f6                	mov    %esi,%esi
    1989:	8d bc 27 00 00 00 00 	lea    0x0(%edi,%eiz,1),%edi

00001990 <test_reading_cgroup_files>:
}

TEST(test_reading_cgroup_files)
{
    1990:	55                   	push   %ebp
    1991:	89 e5                	mov    %esp,%ebp
    1993:	56                   	push   %esi
    1994:	53                   	push   %ebx
    1995:	31 db                	xor    %ebx,%ebx
    ASSERT_TRUE(read_file(TEST_1_CGROUP_PROCS, 1));
    1997:	83 ec 08             	sub    $0x8,%esp
    199a:	6a 01                	push   $0x1
    199c:	68 ed c9 00 00       	push   $0xc9ed
    19a1:	e8 7a e8 ff ff       	call   220 <read_file>
    19a6:	83 c4 10             	add    $0x10,%esp
    19a9:	85 c0                	test   %eax,%eax
    19ab:	0f 84 5c 02 00 00    	je     1c0d <test_reading_cgroup_files+0x27d>
    ASSERT_TRUE(read_file(TEST_1_CGROUP_CONTROLLERS, 1));
    19b1:	83 ec 08             	sub    $0x8,%esp
    19b4:	31 db                	xor    %ebx,%ebx
    19b6:	6a 01                	push   $0x1
    19b8:	68 bc d7 00 00       	push   $0xd7bc
    19bd:	e8 5e e8 ff ff       	call   220 <read_file>
    19c2:	83 c4 10             	add    $0x10,%esp
    19c5:	85 c0                	test   %eax,%eax
    19c7:	0f 84 b0 02 00 00    	je     1c7d <test_reading_cgroup_files+0x2ed>
    ASSERT_TRUE(read_file(TEST_1_CGROUP_SUBTREE_CONTROL, 1));
    19cd:	83 ec 08             	sub    $0x8,%esp
    19d0:	31 db                	xor    %ebx,%ebx
    19d2:	6a 01                	push   $0x1
    19d4:	68 b8 d3 00 00       	push   $0xd3b8
    19d9:	e8 42 e8 ff ff       	call   220 <read_file>
    19de:	83 c4 10             	add    $0x10,%esp
    19e1:	85 c0                	test   %eax,%eax
    19e3:	0f 84 04 03 00 00    	je     1ced <test_reading_cgroup_files+0x35d>
    ASSERT_TRUE(read_file(TEST_1_CGROUP_EVENTS, 1));
    19e9:	83 ec 08             	sub    $0x8,%esp
    19ec:	31 db                	xor    %ebx,%ebx
    19ee:	6a 01                	push   $0x1
    19f0:	68 08 ca 00 00       	push   $0xca08
    19f5:	e8 26 e8 ff ff       	call   220 <read_file>
    19fa:	83 c4 10             	add    $0x10,%esp
    19fd:	85 c0                	test   %eax,%eax
    19ff:	0f 84 58 03 00 00    	je     1d5d <test_reading_cgroup_files+0x3cd>
    ASSERT_TRUE(read_file(TEST_1_CGROUP_DESCENDANTS, 1));
    1a05:	83 ec 08             	sub    $0x8,%esp
    1a08:	31 db                	xor    %ebx,%ebx
    1a0a:	6a 01                	push   $0x1
    1a0c:	68 60 d9 00 00       	push   $0xd960
    1a11:	e8 0a e8 ff ff       	call   220 <read_file>
    1a16:	83 c4 10             	add    $0x10,%esp
    1a19:	85 c0                	test   %eax,%eax
    1a1b:	0f 84 ac 03 00 00    	je     1dcd <test_reading_cgroup_files+0x43d>
    ASSERT_TRUE(read_file(TEST_1_CGROUP_MAX_DEPTH, 1));
    1a21:	83 ec 08             	sub    $0x8,%esp
    1a24:	31 db                	xor    %ebx,%ebx
    1a26:	6a 01                	push   $0x1
    1a28:	68 08 da 00 00       	push   $0xda08
    1a2d:	e8 ee e7 ff ff       	call   220 <read_file>
    1a32:	83 c4 10             	add    $0x10,%esp
    1a35:	85 c0                	test   %eax,%eax
    1a37:	0f 84 00 04 00 00    	je     1e3d <test_reading_cgroup_files+0x4ad>
    ASSERT_TRUE(read_file(TEST_1_CGROUP_STAT, 1));
    1a3d:	83 ec 08             	sub    $0x8,%esp
    1a40:	31 db                	xor    %ebx,%ebx
    1a42:	6a 01                	push   $0x1
    1a44:	68 24 ca 00 00       	push   $0xca24
    1a49:	e8 d2 e7 ff ff       	call   220 <read_file>
    1a4e:	83 c4 10             	add    $0x10,%esp
    1a51:	85 c0                	test   %eax,%eax
    1a53:	0f 84 54 04 00 00    	je     1ead <test_reading_cgroup_files+0x51d>
    ASSERT_TRUE(read_file(TEST_1_CPU_MAX, 1));
    1a59:	83 ec 08             	sub    $0x8,%esp
    1a5c:	31 db                	xor    %ebx,%ebx
    1a5e:	6a 01                	push   $0x1
    1a60:	68 3e ca 00 00       	push   $0xca3e
    1a65:	e8 b6 e7 ff ff       	call   220 <read_file>
    1a6a:	83 c4 10             	add    $0x10,%esp
    1a6d:	85 c0                	test   %eax,%eax
    1a6f:	0f 84 a8 04 00 00    	je     1f1d <test_reading_cgroup_files+0x58d>
    ASSERT_TRUE(read_file(TEST_1_CPU_WEIGHT, 1));
    1a75:	83 ec 08             	sub    $0x8,%esp
    1a78:	31 db                	xor    %ebx,%ebx
    1a7a:	6a 01                	push   $0x1
    1a7c:	68 54 ca 00 00       	push   $0xca54
    1a81:	e8 9a e7 ff ff       	call   220 <read_file>
    1a86:	83 c4 10             	add    $0x10,%esp
    1a89:	85 c0                	test   %eax,%eax
    1a8b:	0f 84 fc 04 00 00    	je     1f8d <test_reading_cgroup_files+0x5fd>
    ASSERT_TRUE(read_file(TEST_1_CPU_STAT, 1));
    1a91:	83 ec 08             	sub    $0x8,%esp
    1a94:	31 db                	xor    %ebx,%ebx
    1a96:	6a 01                	push   $0x1
    1a98:	68 6d ca 00 00       	push   $0xca6d
    1a9d:	e8 7e e7 ff ff       	call   220 <read_file>
    1aa2:	83 c4 10             	add    $0x10,%esp
    1aa5:	85 c0                	test   %eax,%eax
    1aa7:	0f 84 50 05 00 00    	je     1ffd <test_reading_cgroup_files+0x66d>
    ASSERT_TRUE(read_file(TEST_1_PID_MAX, 1));
    1aad:	83 ec 08             	sub    $0x8,%esp
    1ab0:	31 db                	xor    %ebx,%ebx
    1ab2:	6a 01                	push   $0x1
    1ab4:	68 84 ca 00 00       	push   $0xca84
    1ab9:	e8 62 e7 ff ff       	call   220 <read_file>
    1abe:	83 c4 10             	add    $0x10,%esp
    1ac1:	85 c0                	test   %eax,%eax
    1ac3:	0f 84 a4 05 00 00    	je     206d <test_reading_cgroup_files+0x6dd>
    ASSERT_TRUE(read_file(TEST_1_PID_CURRENT, 1));
    1ac9:	83 ec 08             	sub    $0x8,%esp
    1acc:	31 db                	xor    %ebx,%ebx
    1ace:	6a 01                	push   $0x1
    1ad0:	68 9a ca 00 00       	push   $0xca9a
    1ad5:	e8 46 e7 ff ff       	call   220 <read_file>
    1ada:	83 c4 10             	add    $0x10,%esp
    1add:	85 c0                	test   %eax,%eax
    1adf:	0f 84 f8 05 00 00    	je     20dd <test_reading_cgroup_files+0x74d>
    ASSERT_TRUE(read_file(TEST_1_SET_CPU, 1));
    1ae5:	83 ec 08             	sub    $0x8,%esp
    1ae8:	31 db                	xor    %ebx,%ebx
    1aea:	6a 01                	push   $0x1
    1aec:	68 b4 ca 00 00       	push   $0xcab4
    1af1:	e8 2a e7 ff ff       	call   220 <read_file>
    1af6:	83 c4 10             	add    $0x10,%esp
    1af9:	85 c0                	test   %eax,%eax
    1afb:	0f 84 4c 06 00 00    	je     214d <test_reading_cgroup_files+0x7bd>
    ASSERT_TRUE(read_file(TEST_1_SET_FRZ, 1));
    1b01:	83 ec 08             	sub    $0x8,%esp
    1b04:	31 db                	xor    %ebx,%ebx
    1b06:	6a 01                	push   $0x1
    1b08:	68 ce ca 00 00       	push   $0xcace
    1b0d:	e8 0e e7 ff ff       	call   220 <read_file>
    1b12:	83 c4 10             	add    $0x10,%esp
    1b15:	85 c0                	test   %eax,%eax
    1b17:	0f 84 99 06 00 00    	je     21b6 <test_reading_cgroup_files+0x826>
    ASSERT_TRUE(read_file(TEST_1_MEM_CURRENT, 1));
    1b1d:	83 ec 08             	sub    $0x8,%esp
    1b20:	31 db                	xor    %ebx,%ebx
    1b22:	6a 01                	push   $0x1
    1b24:	68 ea ca 00 00       	push   $0xcaea
    1b29:	e8 f2 e6 ff ff       	call   220 <read_file>
    1b2e:	83 c4 10             	add    $0x10,%esp
    1b31:	85 c0                	test   %eax,%eax
    1b33:	0f 84 e6 06 00 00    	je     221f <test_reading_cgroup_files+0x88f>
    ASSERT_TRUE(read_file(TEST_1_MEM_MAX, 1));
    1b39:	83 ec 08             	sub    $0x8,%esp
    1b3c:	31 db                	xor    %ebx,%ebx
    1b3e:	6a 01                	push   $0x1
    1b40:	68 07 cb 00 00       	push   $0xcb07
    1b45:	e8 d6 e6 ff ff       	call   220 <read_file>
    1b4a:	83 c4 10             	add    $0x10,%esp
    1b4d:	85 c0                	test   %eax,%eax
    1b4f:	0f 84 33 07 00 00    	je     2288 <test_reading_cgroup_files+0x8f8>
    ASSERT_TRUE(read_file(TEST_1_MEM_MIN, 1));
    1b55:	83 ec 08             	sub    $0x8,%esp
    1b58:	31 db                	xor    %ebx,%ebx
    1b5a:	6a 01                	push   $0x1
    1b5c:	68 20 cb 00 00       	push   $0xcb20
    1b61:	e8 ba e6 ff ff       	call   220 <read_file>
    1b66:	83 c4 10             	add    $0x10,%esp
    1b69:	85 c0                	test   %eax,%eax
    1b6b:	0f 84 80 07 00 00    	je     22f1 <test_reading_cgroup_files+0x961>
    ASSERT_TRUE(read_file(TEST_1_MEM_STAT, 1));
    1b71:	83 ec 08             	sub    $0x8,%esp
    1b74:	31 db                	xor    %ebx,%ebx
    1b76:	6a 01                	push   $0x1
    1b78:	68 39 cb 00 00       	push   $0xcb39
    1b7d:	e8 9e e6 ff ff       	call   220 <read_file>
    1b82:	83 c4 10             	add    $0x10,%esp
    1b85:	85 c0                	test   %eax,%eax
    1b87:	0f 85 cf 00 00 00    	jne    1c5c <test_reading_cgroup_files+0x2cc>
    1b8d:	eb 15                	jmp    1ba4 <test_reading_cgroup_files+0x214>
    1b8f:	83 ec 08             	sub    $0x8,%esp
    1b92:	83 c3 01             	add    $0x1,%ebx
    1b95:	68 18 c8 00 00       	push   $0xc818
    1b9a:	6a 01                	push   $0x1
    1b9c:	e8 ff a7 00 00       	call   c3a0 <printf>
    1ba1:	83 c4 10             	add    $0x10,%esp
    1ba4:	83 ec 0c             	sub    $0xc,%esp
    1ba7:	68 1f cc 00 00       	push   $0xcc1f
    1bac:	e8 af a2 00 00       	call   be60 <strlen>
    1bb1:	89 c6                	mov    %eax,%esi
    1bb3:	c7 04 24 25 c8 00 00 	movl   $0xc825,(%esp)
    1bba:	e8 a1 a2 00 00       	call   be60 <strlen>
    1bbf:	8d 44 06 02          	lea    0x2(%esi,%eax,1),%eax
    1bc3:	83 c4 10             	add    $0x10,%esp
    1bc6:	39 d8                	cmp    %ebx,%eax
    1bc8:	77 c5                	ja     1b8f <test_reading_cgroup_files+0x1ff>
    1bca:	83 ec 0c             	sub    $0xc,%esp
    1bcd:	68 ad 01 00 00       	push   $0x1ad
    1bd2:	68 30 c8 00 00       	push   $0xc830
    1bd7:	ff 75 08             	pushl  0x8(%ebp)
    1bda:	68 64 e6 00 00       	push   $0xe664
    1bdf:	6a 01                	push   $0x1
    1be1:	e8 ba a7 00 00       	call   c3a0 <printf>
    1be6:	c7 05 40 42 01 00 01 	movl   $0x1,0x14240
    1bed:	00 00 00 
    1bf0:	83 c4 20             	add    $0x20,%esp
    1bf3:	eb 67                	jmp    1c5c <test_reading_cgroup_files+0x2cc>
    1bf5:	8d 76 00             	lea    0x0(%esi),%esi
    ASSERT_TRUE(open_close_file(TEST_1_MEM_STAT));
}

TEST(test_reading_cgroup_files)
{
    ASSERT_TRUE(read_file(TEST_1_CGROUP_PROCS, 1));
    1bf8:	83 ec 08             	sub    $0x8,%esp
    1bfb:	83 c3 01             	add    $0x1,%ebx
    1bfe:	68 18 c8 00 00       	push   $0xc818
    1c03:	6a 01                	push   $0x1
    1c05:	e8 96 a7 00 00       	call   c3a0 <printf>
    1c0a:	83 c4 10             	add    $0x10,%esp
    1c0d:	83 ec 0c             	sub    $0xc,%esp
    1c10:	68 dc df 00 00       	push   $0xdfdc
    1c15:	e8 46 a2 00 00       	call   be60 <strlen>
    1c1a:	89 c6                	mov    %eax,%esi
    1c1c:	c7 04 24 25 c8 00 00 	movl   $0xc825,(%esp)
    1c23:	e8 38 a2 00 00       	call   be60 <strlen>
    1c28:	8d 44 06 02          	lea    0x2(%esi,%eax,1),%eax
    1c2c:	83 c4 10             	add    $0x10,%esp
    1c2f:	39 d8                	cmp    %ebx,%eax
    1c31:	77 c5                	ja     1bf8 <test_reading_cgroup_files+0x268>
    1c33:	83 ec 0c             	sub    $0xc,%esp
    1c36:	68 9c 01 00 00       	push   $0x19c
    1c3b:	68 30 c8 00 00       	push   $0xc830
    1c40:	ff 75 08             	pushl  0x8(%ebp)
    1c43:	68 00 e0 00 00       	push   $0xe000
    1c48:	6a 01                	push   $0x1
    1c4a:	e8 51 a7 00 00       	call   c3a0 <printf>
    1c4f:	c7 05 40 42 01 00 01 	movl   $0x1,0x14240
    1c56:	00 00 00 
    1c59:	83 c4 20             	add    $0x20,%esp
    ASSERT_TRUE(read_file(TEST_1_SET_FRZ, 1));
    ASSERT_TRUE(read_file(TEST_1_MEM_CURRENT, 1));
    ASSERT_TRUE(read_file(TEST_1_MEM_MAX, 1));
    ASSERT_TRUE(read_file(TEST_1_MEM_MIN, 1));
    ASSERT_TRUE(read_file(TEST_1_MEM_STAT, 1));
}
    1c5c:	8d 65 f8             	lea    -0x8(%ebp),%esp
    1c5f:	5b                   	pop    %ebx
    1c60:	5e                   	pop    %esi
    1c61:	5d                   	pop    %ebp
    1c62:	c3                   	ret    
    1c63:	90                   	nop
    1c64:	8d 74 26 00          	lea    0x0(%esi,%eiz,1),%esi
}

TEST(test_reading_cgroup_files)
{
    ASSERT_TRUE(read_file(TEST_1_CGROUP_PROCS, 1));
    ASSERT_TRUE(read_file(TEST_1_CGROUP_CONTROLLERS, 1));
    1c68:	83 ec 08             	sub    $0x8,%esp
    1c6b:	83 c3 01             	add    $0x1,%ebx
    1c6e:	68 18 c8 00 00       	push   $0xc818
    1c73:	6a 01                	push   $0x1
    1c75:	e8 26 a7 00 00       	call   c3a0 <printf>
    1c7a:	83 c4 10             	add    $0x10,%esp
    1c7d:	83 ec 0c             	sub    $0xc,%esp
    1c80:	68 4c e0 00 00       	push   $0xe04c
    1c85:	e8 d6 a1 00 00       	call   be60 <strlen>
    1c8a:	89 c6                	mov    %eax,%esi
    1c8c:	c7 04 24 25 c8 00 00 	movl   $0xc825,(%esp)
    1c93:	e8 c8 a1 00 00       	call   be60 <strlen>
    1c98:	8d 44 06 02          	lea    0x2(%esi,%eax,1),%eax
    1c9c:	83 c4 10             	add    $0x10,%esp
    1c9f:	39 d8                	cmp    %ebx,%eax
    1ca1:	77 c5                	ja     1c68 <test_reading_cgroup_files+0x2d8>
    1ca3:	83 ec 0c             	sub    $0xc,%esp
    1ca6:	68 9d 01 00 00       	push   $0x19d
    1cab:	68 30 c8 00 00       	push   $0xc830
    1cb0:	ff 75 08             	pushl  0x8(%ebp)
    1cb3:	68 74 e0 00 00       	push   $0xe074
    1cb8:	6a 01                	push   $0x1
    1cba:	e8 e1 a6 00 00       	call   c3a0 <printf>
    1cbf:	c7 05 40 42 01 00 01 	movl   $0x1,0x14240
    1cc6:	00 00 00 
    1cc9:	83 c4 20             	add    $0x20,%esp
    ASSERT_TRUE(read_file(TEST_1_SET_FRZ, 1));
    ASSERT_TRUE(read_file(TEST_1_MEM_CURRENT, 1));
    ASSERT_TRUE(read_file(TEST_1_MEM_MAX, 1));
    ASSERT_TRUE(read_file(TEST_1_MEM_MIN, 1));
    ASSERT_TRUE(read_file(TEST_1_MEM_STAT, 1));
}
    1ccc:	8d 65 f8             	lea    -0x8(%ebp),%esp
    1ccf:	5b                   	pop    %ebx
    1cd0:	5e                   	pop    %esi
    1cd1:	5d                   	pop    %ebp
    1cd2:	c3                   	ret    
    1cd3:	90                   	nop
    1cd4:	8d 74 26 00          	lea    0x0(%esi,%eiz,1),%esi

TEST(test_reading_cgroup_files)
{
    ASSERT_TRUE(read_file(TEST_1_CGROUP_PROCS, 1));
    ASSERT_TRUE(read_file(TEST_1_CGROUP_CONTROLLERS, 1));
    ASSERT_TRUE(read_file(TEST_1_CGROUP_SUBTREE_CONTROL, 1));
    1cd8:	83 ec 08             	sub    $0x8,%esp
    1cdb:	83 c3 01             	add    $0x1,%ebx
    1cde:	68 18 c8 00 00       	push   $0xc818
    1ce3:	6a 01                	push   $0x1
    1ce5:	e8 b6 a6 00 00       	call   c3a0 <printf>
    1cea:	83 c4 10             	add    $0x10,%esp
    1ced:	83 ec 0c             	sub    $0xc,%esp
    1cf0:	68 c8 e0 00 00       	push   $0xe0c8
    1cf5:	e8 66 a1 00 00       	call   be60 <strlen>
    1cfa:	89 c6                	mov    %eax,%esi
    1cfc:	c7 04 24 25 c8 00 00 	movl   $0xc825,(%esp)
    1d03:	e8 58 a1 00 00       	call   be60 <strlen>
    1d08:	8d 44 06 02          	lea    0x2(%esi,%eax,1),%eax
    1d0c:	83 c4 10             	add    $0x10,%esp
    1d0f:	39 d8                	cmp    %ebx,%eax
    1d11:	77 c5                	ja     1cd8 <test_reading_cgroup_files+0x348>
    1d13:	83 ec 0c             	sub    $0xc,%esp
    1d16:	68 9e 01 00 00       	push   $0x19e
    1d1b:	68 30 c8 00 00       	push   $0xc830
    1d20:	ff 75 08             	pushl  0x8(%ebp)
    1d23:	68 f4 e0 00 00       	push   $0xe0f4
    1d28:	6a 01                	push   $0x1
    1d2a:	e8 71 a6 00 00       	call   c3a0 <printf>
    1d2f:	c7 05 40 42 01 00 01 	movl   $0x1,0x14240
    1d36:	00 00 00 
    1d39:	83 c4 20             	add    $0x20,%esp
    ASSERT_TRUE(read_file(TEST_1_SET_FRZ, 1));
    ASSERT_TRUE(read_file(TEST_1_MEM_CURRENT, 1));
    ASSERT_TRUE(read_file(TEST_1_MEM_MAX, 1));
    ASSERT_TRUE(read_file(TEST_1_MEM_MIN, 1));
    ASSERT_TRUE(read_file(TEST_1_MEM_STAT, 1));
}
    1d3c:	8d 65 f8             	lea    -0x8(%ebp),%esp
    1d3f:	5b                   	pop    %ebx
    1d40:	5e                   	pop    %esi
    1d41:	5d                   	pop    %ebp
    1d42:	c3                   	ret    
    1d43:	90                   	nop
    1d44:	8d 74 26 00          	lea    0x0(%esi,%eiz,1),%esi
TEST(test_reading_cgroup_files)
{
    ASSERT_TRUE(read_file(TEST_1_CGROUP_PROCS, 1));
    ASSERT_TRUE(read_file(TEST_1_CGROUP_CONTROLLERS, 1));
    ASSERT_TRUE(read_file(TEST_1_CGROUP_SUBTREE_CONTROL, 1));
    ASSERT_TRUE(read_file(TEST_1_CGROUP_EVENTS, 1));
    1d48:	83 ec 08             	sub    $0x8,%esp
    1d4b:	83 c3 01             	add    $0x1,%ebx
    1d4e:	68 18 c8 00 00       	push   $0xc818
    1d53:	6a 01                	push   $0x1
    1d55:	e8 46 a6 00 00       	call   c3a0 <printf>
    1d5a:	83 c4 10             	add    $0x10,%esp
    1d5d:	83 ec 0c             	sub    $0xc,%esp
    1d60:	68 4c e1 00 00       	push   $0xe14c
    1d65:	e8 f6 a0 00 00       	call   be60 <strlen>
    1d6a:	89 c6                	mov    %eax,%esi
    1d6c:	c7 04 24 25 c8 00 00 	movl   $0xc825,(%esp)
    1d73:	e8 e8 a0 00 00       	call   be60 <strlen>
    1d78:	8d 44 06 02          	lea    0x2(%esi,%eax,1),%eax
    1d7c:	83 c4 10             	add    $0x10,%esp
    1d7f:	39 d8                	cmp    %ebx,%eax
    1d81:	77 c5                	ja     1d48 <test_reading_cgroup_files+0x3b8>
    1d83:	83 ec 0c             	sub    $0xc,%esp
    1d86:	68 9f 01 00 00       	push   $0x19f
    1d8b:	68 30 c8 00 00       	push   $0xc830
    1d90:	ff 75 08             	pushl  0x8(%ebp)
    1d93:	68 70 e1 00 00       	push   $0xe170
    1d98:	6a 01                	push   $0x1
    1d9a:	e8 01 a6 00 00       	call   c3a0 <printf>
    1d9f:	c7 05 40 42 01 00 01 	movl   $0x1,0x14240
    1da6:	00 00 00 
    1da9:	83 c4 20             	add    $0x20,%esp
    ASSERT_TRUE(read_file(TEST_1_SET_FRZ, 1));
    ASSERT_TRUE(read_file(TEST_1_MEM_CURRENT, 1));
    ASSERT_TRUE(read_file(TEST_1_MEM_MAX, 1));
    ASSERT_TRUE(read_file(TEST_1_MEM_MIN, 1));
    ASSERT_TRUE(read_file(TEST_1_MEM_STAT, 1));
}
    1dac:	8d 65 f8             	lea    -0x8(%ebp),%esp
    1daf:	5b                   	pop    %ebx
    1db0:	5e                   	pop    %esi
    1db1:	5d                   	pop    %ebp
    1db2:	c3                   	ret    
    1db3:	90                   	nop
    1db4:	8d 74 26 00          	lea    0x0(%esi,%eiz,1),%esi
{
    ASSERT_TRUE(read_file(TEST_1_CGROUP_PROCS, 1));
    ASSERT_TRUE(read_file(TEST_1_CGROUP_CONTROLLERS, 1));
    ASSERT_TRUE(read_file(TEST_1_CGROUP_SUBTREE_CONTROL, 1));
    ASSERT_TRUE(read_file(TEST_1_CGROUP_EVENTS, 1));
    ASSERT_TRUE(read_file(TEST_1_CGROUP_DESCENDANTS, 1));
    1db8:	83 ec 08             	sub    $0x8,%esp
    1dbb:	83 c3 01             	add    $0x1,%ebx
    1dbe:	68 18 c8 00 00       	push   $0xc818
    1dc3:	6a 01                	push   $0x1
    1dc5:	e8 d6 a5 00 00       	call   c3a0 <printf>
    1dca:	83 c4 10             	add    $0x10,%esp
    1dcd:	83 ec 0c             	sub    $0xc,%esp
    1dd0:	68 bc e1 00 00       	push   $0xe1bc
    1dd5:	e8 86 a0 00 00       	call   be60 <strlen>
    1dda:	89 c6                	mov    %eax,%esi
    1ddc:	c7 04 24 25 c8 00 00 	movl   $0xc825,(%esp)
    1de3:	e8 78 a0 00 00       	call   be60 <strlen>
    1de8:	8d 44 06 02          	lea    0x2(%esi,%eax,1),%eax
    1dec:	83 c4 10             	add    $0x10,%esp
    1def:	39 d8                	cmp    %ebx,%eax
    1df1:	77 c5                	ja     1db8 <test_reading_cgroup_files+0x428>
    1df3:	83 ec 0c             	sub    $0xc,%esp
    1df6:	68 a0 01 00 00       	push   $0x1a0
    1dfb:	68 30 c8 00 00       	push   $0xc830
    1e00:	ff 75 08             	pushl  0x8(%ebp)
    1e03:	68 e4 e1 00 00       	push   $0xe1e4
    1e08:	6a 01                	push   $0x1
    1e0a:	e8 91 a5 00 00       	call   c3a0 <printf>
    1e0f:	c7 05 40 42 01 00 01 	movl   $0x1,0x14240
    1e16:	00 00 00 
    1e19:	83 c4 20             	add    $0x20,%esp
    1e1c:	e9 3b fe ff ff       	jmp    1c5c <test_reading_cgroup_files+0x2cc>
    1e21:	8d b4 26 00 00 00 00 	lea    0x0(%esi,%eiz,1),%esi
    ASSERT_TRUE(read_file(TEST_1_CGROUP_MAX_DEPTH, 1));
    1e28:	83 ec 08             	sub    $0x8,%esp
    1e2b:	83 c3 01             	add    $0x1,%ebx
    1e2e:	68 18 c8 00 00       	push   $0xc818
    1e33:	6a 01                	push   $0x1
    1e35:	e8 66 a5 00 00       	call   c3a0 <printf>
    1e3a:	83 c4 10             	add    $0x10,%esp
    1e3d:	83 ec 0c             	sub    $0xc,%esp
    1e40:	68 38 e2 00 00       	push   $0xe238
    1e45:	e8 16 a0 00 00       	call   be60 <strlen>
    1e4a:	89 c6                	mov    %eax,%esi
    1e4c:	c7 04 24 25 c8 00 00 	movl   $0xc825,(%esp)
    1e53:	e8 08 a0 00 00       	call   be60 <strlen>
    1e58:	8d 44 06 02          	lea    0x2(%esi,%eax,1),%eax
    1e5c:	83 c4 10             	add    $0x10,%esp
    1e5f:	39 d8                	cmp    %ebx,%eax
    1e61:	77 c5                	ja     1e28 <test_reading_cgroup_files+0x498>
    1e63:	83 ec 0c             	sub    $0xc,%esp
    1e66:	68 a1 01 00 00       	push   $0x1a1
    1e6b:	68 30 c8 00 00       	push   $0xc830
    1e70:	ff 75 08             	pushl  0x8(%ebp)
    1e73:	68 60 e2 00 00       	push   $0xe260
    1e78:	6a 01                	push   $0x1
    1e7a:	e8 21 a5 00 00       	call   c3a0 <printf>
    1e7f:	c7 05 40 42 01 00 01 	movl   $0x1,0x14240
    1e86:	00 00 00 
    1e89:	83 c4 20             	add    $0x20,%esp
    1e8c:	e9 cb fd ff ff       	jmp    1c5c <test_reading_cgroup_files+0x2cc>
    1e91:	8d b4 26 00 00 00 00 	lea    0x0(%esi,%eiz,1),%esi
    ASSERT_TRUE(read_file(TEST_1_CGROUP_STAT, 1));
    1e98:	83 ec 08             	sub    $0x8,%esp
    1e9b:	83 c3 01             	add    $0x1,%ebx
    1e9e:	68 18 c8 00 00       	push   $0xc818
    1ea3:	6a 01                	push   $0x1
    1ea5:	e8 f6 a4 00 00       	call   c3a0 <printf>
    1eaa:	83 c4 10             	add    $0x10,%esp
    1ead:	83 ec 0c             	sub    $0xc,%esp
    1eb0:	68 b0 e2 00 00       	push   $0xe2b0
    1eb5:	e8 a6 9f 00 00       	call   be60 <strlen>
    1eba:	89 c6                	mov    %eax,%esi
    1ebc:	c7 04 24 25 c8 00 00 	movl   $0xc825,(%esp)
    1ec3:	e8 98 9f 00 00       	call   be60 <strlen>
    1ec8:	8d 44 06 02          	lea    0x2(%esi,%eax,1),%eax
    1ecc:	83 c4 10             	add    $0x10,%esp
    1ecf:	39 d8                	cmp    %ebx,%eax
    1ed1:	77 c5                	ja     1e98 <test_reading_cgroup_files+0x508>
    1ed3:	83 ec 0c             	sub    $0xc,%esp
    1ed6:	68 a2 01 00 00       	push   $0x1a2
    1edb:	68 30 c8 00 00       	push   $0xc830
    1ee0:	ff 75 08             	pushl  0x8(%ebp)
    1ee3:	68 d4 e2 00 00       	push   $0xe2d4
    1ee8:	6a 01                	push   $0x1
    1eea:	e8 b1 a4 00 00       	call   c3a0 <printf>
    1eef:	c7 05 40 42 01 00 01 	movl   $0x1,0x14240
    1ef6:	00 00 00 
    1ef9:	83 c4 20             	add    $0x20,%esp
    1efc:	e9 5b fd ff ff       	jmp    1c5c <test_reading_cgroup_files+0x2cc>
    1f01:	8d b4 26 00 00 00 00 	lea    0x0(%esi,%eiz,1),%esi
    ASSERT_TRUE(read_file(TEST_1_CPU_MAX, 1));
    1f08:	83 ec 08             	sub    $0x8,%esp
    1f0b:	83 c3 01             	add    $0x1,%ebx
    1f0e:	68 18 c8 00 00       	push   $0xc818
    1f13:	6a 01                	push   $0x1
    1f15:	e8 86 a4 00 00       	call   c3a0 <printf>
    1f1a:	83 c4 10             	add    $0x10,%esp
    1f1d:	83 ec 0c             	sub    $0xc,%esp
    1f20:	68 53 cb 00 00       	push   $0xcb53
    1f25:	e8 36 9f 00 00       	call   be60 <strlen>
    1f2a:	89 c6                	mov    %eax,%esi
    1f2c:	c7 04 24 25 c8 00 00 	movl   $0xc825,(%esp)
    1f33:	e8 28 9f 00 00       	call   be60 <strlen>
    1f38:	8d 44 06 02          	lea    0x2(%esi,%eax,1),%eax
    1f3c:	83 c4 10             	add    $0x10,%esp
    1f3f:	39 d8                	cmp    %ebx,%eax
    1f41:	77 c5                	ja     1f08 <test_reading_cgroup_files+0x578>
    1f43:	83 ec 0c             	sub    $0xc,%esp
    1f46:	68 a3 01 00 00       	push   $0x1a3
    1f4b:	68 30 c8 00 00       	push   $0xc830
    1f50:	ff 75 08             	pushl  0x8(%ebp)
    1f53:	68 20 e3 00 00       	push   $0xe320
    1f58:	6a 01                	push   $0x1
    1f5a:	e8 41 a4 00 00       	call   c3a0 <printf>
    1f5f:	c7 05 40 42 01 00 01 	movl   $0x1,0x14240
    1f66:	00 00 00 
    1f69:	83 c4 20             	add    $0x20,%esp
    1f6c:	e9 eb fc ff ff       	jmp    1c5c <test_reading_cgroup_files+0x2cc>
    1f71:	8d b4 26 00 00 00 00 	lea    0x0(%esi,%eiz,1),%esi
    ASSERT_TRUE(read_file(TEST_1_CPU_WEIGHT, 1));
    1f78:	83 ec 08             	sub    $0x8,%esp
    1f7b:	83 c3 01             	add    $0x1,%ebx
    1f7e:	68 18 c8 00 00       	push   $0xc818
    1f83:	6a 01                	push   $0x1
    1f85:	e8 16 a4 00 00       	call   c3a0 <printf>
    1f8a:	83 c4 10             	add    $0x10,%esp
    1f8d:	83 ec 0c             	sub    $0xc,%esp
    1f90:	68 68 e3 00 00       	push   $0xe368
    1f95:	e8 c6 9e 00 00       	call   be60 <strlen>
    1f9a:	89 c6                	mov    %eax,%esi
    1f9c:	c7 04 24 25 c8 00 00 	movl   $0xc825,(%esp)
    1fa3:	e8 b8 9e 00 00       	call   be60 <strlen>
    1fa8:	8d 44 06 02          	lea    0x2(%esi,%eax,1),%eax
    1fac:	83 c4 10             	add    $0x10,%esp
    1faf:	39 d8                	cmp    %ebx,%eax
    1fb1:	77 c5                	ja     1f78 <test_reading_cgroup_files+0x5e8>
    1fb3:	83 ec 0c             	sub    $0xc,%esp
    1fb6:	68 a4 01 00 00       	push   $0x1a4
    1fbb:	68 30 c8 00 00       	push   $0xc830
    1fc0:	ff 75 08             	pushl  0x8(%ebp)
    1fc3:	68 88 e3 00 00       	push   $0xe388
    1fc8:	6a 01                	push   $0x1
    1fca:	e8 d1 a3 00 00       	call   c3a0 <printf>
    1fcf:	c7 05 40 42 01 00 01 	movl   $0x1,0x14240
    1fd6:	00 00 00 
    1fd9:	83 c4 20             	add    $0x20,%esp
    1fdc:	e9 7b fc ff ff       	jmp    1c5c <test_reading_cgroup_files+0x2cc>
    1fe1:	8d b4 26 00 00 00 00 	lea    0x0(%esi,%eiz,1),%esi
    ASSERT_TRUE(read_file(TEST_1_CPU_STAT, 1));
    1fe8:	83 ec 08             	sub    $0x8,%esp
    1feb:	83 c3 01             	add    $0x1,%ebx
    1fee:	68 18 c8 00 00       	push   $0xc818
    1ff3:	6a 01                	push   $0x1
    1ff5:	e8 a6 a3 00 00       	call   c3a0 <printf>
    1ffa:	83 c4 10             	add    $0x10,%esp
    1ffd:	83 ec 0c             	sub    $0xc,%esp
    2000:	68 70 cb 00 00       	push   $0xcb70
    2005:	e8 56 9e 00 00       	call   be60 <strlen>
    200a:	89 c6                	mov    %eax,%esi
    200c:	c7 04 24 25 c8 00 00 	movl   $0xc825,(%esp)
    2013:	e8 48 9e 00 00       	call   be60 <strlen>
    2018:	8d 44 06 02          	lea    0x2(%esi,%eax,1),%eax
    201c:	83 c4 10             	add    $0x10,%esp
    201f:	39 d8                	cmp    %ebx,%eax
    2021:	77 c5                	ja     1fe8 <test_reading_cgroup_files+0x658>
    2023:	83 ec 0c             	sub    $0xc,%esp
    2026:	68 a5 01 00 00       	push   $0x1a5
    202b:	68 30 c8 00 00       	push   $0xc830
    2030:	ff 75 08             	pushl  0x8(%ebp)
    2033:	68 d4 e3 00 00       	push   $0xe3d4
    2038:	6a 01                	push   $0x1
    203a:	e8 61 a3 00 00       	call   c3a0 <printf>
    203f:	c7 05 40 42 01 00 01 	movl   $0x1,0x14240
    2046:	00 00 00 
    2049:	83 c4 20             	add    $0x20,%esp
    204c:	e9 0b fc ff ff       	jmp    1c5c <test_reading_cgroup_files+0x2cc>
    2051:	8d b4 26 00 00 00 00 	lea    0x0(%esi,%eiz,1),%esi
    ASSERT_TRUE(read_file(TEST_1_PID_MAX, 1));
    2058:	83 ec 08             	sub    $0x8,%esp
    205b:	83 c3 01             	add    $0x1,%ebx
    205e:	68 18 c8 00 00       	push   $0xc818
    2063:	6a 01                	push   $0x1
    2065:	e8 36 a3 00 00       	call   c3a0 <printf>
    206a:	83 c4 10             	add    $0x10,%esp
    206d:	83 ec 0c             	sub    $0xc,%esp
    2070:	68 8e cb 00 00       	push   $0xcb8e
    2075:	e8 e6 9d 00 00       	call   be60 <strlen>
    207a:	89 c6                	mov    %eax,%esi
    207c:	c7 04 24 25 c8 00 00 	movl   $0xc825,(%esp)
    2083:	e8 d8 9d 00 00       	call   be60 <strlen>
    2088:	8d 44 06 02          	lea    0x2(%esi,%eax,1),%eax
    208c:	83 c4 10             	add    $0x10,%esp
    208f:	39 d8                	cmp    %ebx,%eax
    2091:	77 c5                	ja     2058 <test_reading_cgroup_files+0x6c8>
    2093:	83 ec 0c             	sub    $0xc,%esp
    2096:	68 a6 01 00 00       	push   $0x1a6
    209b:	68 30 c8 00 00       	push   $0xc830
    20a0:	ff 75 08             	pushl  0x8(%ebp)
    20a3:	68 1c e4 00 00       	push   $0xe41c
    20a8:	6a 01                	push   $0x1
    20aa:	e8 f1 a2 00 00       	call   c3a0 <printf>
    20af:	c7 05 40 42 01 00 01 	movl   $0x1,0x14240
    20b6:	00 00 00 
    20b9:	83 c4 20             	add    $0x20,%esp
    20bc:	e9 9b fb ff ff       	jmp    1c5c <test_reading_cgroup_files+0x2cc>
    20c1:	8d b4 26 00 00 00 00 	lea    0x0(%esi,%eiz,1),%esi
    ASSERT_TRUE(read_file(TEST_1_PID_CURRENT, 1));
    20c8:	83 ec 08             	sub    $0x8,%esp
    20cb:	83 c3 01             	add    $0x1,%ebx
    20ce:	68 18 c8 00 00       	push   $0xc818
    20d3:	6a 01                	push   $0x1
    20d5:	e8 c6 a2 00 00       	call   c3a0 <printf>
    20da:	83 c4 10             	add    $0x10,%esp
    20dd:	83 ec 0c             	sub    $0xc,%esp
    20e0:	68 64 e4 00 00       	push   $0xe464
    20e5:	e8 76 9d 00 00       	call   be60 <strlen>
    20ea:	89 c6                	mov    %eax,%esi
    20ec:	c7 04 24 25 c8 00 00 	movl   $0xc825,(%esp)
    20f3:	e8 68 9d 00 00       	call   be60 <strlen>
    20f8:	8d 44 06 02          	lea    0x2(%esi,%eax,1),%eax
    20fc:	83 c4 10             	add    $0x10,%esp
    20ff:	39 d8                	cmp    %ebx,%eax
    2101:	77 c5                	ja     20c8 <test_reading_cgroup_files+0x738>
    2103:	83 ec 0c             	sub    $0xc,%esp
    2106:	68 a7 01 00 00       	push   $0x1a7
    210b:	68 30 c8 00 00       	push   $0xc830
    2110:	ff 75 08             	pushl  0x8(%ebp)
    2113:	68 88 e4 00 00       	push   $0xe488
    2118:	6a 01                	push   $0x1
    211a:	e8 81 a2 00 00       	call   c3a0 <printf>
    211f:	c7 05 40 42 01 00 01 	movl   $0x1,0x14240
    2126:	00 00 00 
    2129:	83 c4 20             	add    $0x20,%esp
    212c:	e9 2b fb ff ff       	jmp    1c5c <test_reading_cgroup_files+0x2cc>
    2131:	8d b4 26 00 00 00 00 	lea    0x0(%esi,%eiz,1),%esi
    ASSERT_TRUE(read_file(TEST_1_SET_CPU, 1));
    2138:	83 ec 08             	sub    $0x8,%esp
    213b:	83 c3 01             	add    $0x1,%ebx
    213e:	68 18 c8 00 00       	push   $0xc818
    2143:	6a 01                	push   $0x1
    2145:	e8 56 a2 00 00       	call   c3a0 <printf>
    214a:	83 c4 10             	add    $0x10,%esp
    214d:	83 ec 0c             	sub    $0xc,%esp
    2150:	68 ab cb 00 00       	push   $0xcbab
    2155:	e8 06 9d 00 00       	call   be60 <strlen>
    215a:	89 c6                	mov    %eax,%esi
    215c:	c7 04 24 25 c8 00 00 	movl   $0xc825,(%esp)
    2163:	e8 f8 9c 00 00       	call   be60 <strlen>
    2168:	8d 44 06 02          	lea    0x2(%esi,%eax,1),%eax
    216c:	83 c4 10             	add    $0x10,%esp
    216f:	39 d8                	cmp    %ebx,%eax
    2171:	77 c5                	ja     2138 <test_reading_cgroup_files+0x7a8>
    2173:	83 ec 0c             	sub    $0xc,%esp
    2176:	68 a8 01 00 00       	push   $0x1a8
    217b:	68 30 c8 00 00       	push   $0xc830
    2180:	ff 75 08             	pushl  0x8(%ebp)
    2183:	68 d4 e4 00 00       	push   $0xe4d4
    2188:	6a 01                	push   $0x1
    218a:	e8 11 a2 00 00       	call   c3a0 <printf>
    218f:	c7 05 40 42 01 00 01 	movl   $0x1,0x14240
    2196:	00 00 00 
    2199:	83 c4 20             	add    $0x20,%esp
    219c:	e9 bb fa ff ff       	jmp    1c5c <test_reading_cgroup_files+0x2cc>
    ASSERT_TRUE(read_file(TEST_1_SET_FRZ, 1));
    21a1:	83 ec 08             	sub    $0x8,%esp
    21a4:	83 c3 01             	add    $0x1,%ebx
    21a7:	68 18 c8 00 00       	push   $0xc818
    21ac:	6a 01                	push   $0x1
    21ae:	e8 ed a1 00 00       	call   c3a0 <printf>
    21b3:	83 c4 10             	add    $0x10,%esp
    21b6:	83 ec 0c             	sub    $0xc,%esp
    21b9:	68 c8 cb 00 00       	push   $0xcbc8
    21be:	e8 9d 9c 00 00       	call   be60 <strlen>
    21c3:	89 c6                	mov    %eax,%esi
    21c5:	c7 04 24 25 c8 00 00 	movl   $0xc825,(%esp)
    21cc:	e8 8f 9c 00 00       	call   be60 <strlen>
    21d1:	8d 44 06 02          	lea    0x2(%esi,%eax,1),%eax
    21d5:	83 c4 10             	add    $0x10,%esp
    21d8:	39 d8                	cmp    %ebx,%eax
    21da:	77 c5                	ja     21a1 <test_reading_cgroup_files+0x811>
    21dc:	83 ec 0c             	sub    $0xc,%esp
    21df:	68 a9 01 00 00       	push   $0x1a9
    21e4:	68 30 c8 00 00       	push   $0xc830
    21e9:	ff 75 08             	pushl  0x8(%ebp)
    21ec:	68 1c e5 00 00       	push   $0xe51c
    21f1:	6a 01                	push   $0x1
    21f3:	e8 a8 a1 00 00       	call   c3a0 <printf>
    21f8:	c7 05 40 42 01 00 01 	movl   $0x1,0x14240
    21ff:	00 00 00 
    2202:	83 c4 20             	add    $0x20,%esp
    2205:	e9 52 fa ff ff       	jmp    1c5c <test_reading_cgroup_files+0x2cc>
    ASSERT_TRUE(read_file(TEST_1_MEM_CURRENT, 1));
    220a:	83 ec 08             	sub    $0x8,%esp
    220d:	83 c3 01             	add    $0x1,%ebx
    2210:	68 18 c8 00 00       	push   $0xc818
    2215:	6a 01                	push   $0x1
    2217:	e8 84 a1 00 00       	call   c3a0 <printf>
    221c:	83 c4 10             	add    $0x10,%esp
    221f:	83 ec 0c             	sub    $0xc,%esp
    2222:	68 64 e5 00 00       	push   $0xe564
    2227:	e8 34 9c 00 00       	call   be60 <strlen>
    222c:	89 c6                	mov    %eax,%esi
    222e:	c7 04 24 25 c8 00 00 	movl   $0xc825,(%esp)
    2235:	e8 26 9c 00 00       	call   be60 <strlen>
    223a:	8d 44 06 02          	lea    0x2(%esi,%eax,1),%eax
    223e:	83 c4 10             	add    $0x10,%esp
    2241:	39 d8                	cmp    %ebx,%eax
    2243:	77 c5                	ja     220a <test_reading_cgroup_files+0x87a>
    2245:	83 ec 0c             	sub    $0xc,%esp
    2248:	68 aa 01 00 00       	push   $0x1aa
    224d:	68 30 c8 00 00       	push   $0xc830
    2252:	ff 75 08             	pushl  0x8(%ebp)
    2255:	68 88 e5 00 00       	push   $0xe588
    225a:	6a 01                	push   $0x1
    225c:	e8 3f a1 00 00       	call   c3a0 <printf>
    2261:	c7 05 40 42 01 00 01 	movl   $0x1,0x14240
    2268:	00 00 00 
    226b:	83 c4 20             	add    $0x20,%esp
    226e:	e9 e9 f9 ff ff       	jmp    1c5c <test_reading_cgroup_files+0x2cc>
    ASSERT_TRUE(read_file(TEST_1_MEM_MAX, 1));
    2273:	83 ec 08             	sub    $0x8,%esp
    2276:	83 c3 01             	add    $0x1,%ebx
    2279:	68 18 c8 00 00       	push   $0xc818
    227e:	6a 01                	push   $0x1
    2280:	e8 1b a1 00 00       	call   c3a0 <printf>
    2285:	83 c4 10             	add    $0x10,%esp
    2288:	83 ec 0c             	sub    $0xc,%esp
    228b:	68 e5 cb 00 00       	push   $0xcbe5
    2290:	e8 cb 9b 00 00       	call   be60 <strlen>
    2295:	89 c6                	mov    %eax,%esi
    2297:	c7 04 24 25 c8 00 00 	movl   $0xc825,(%esp)
    229e:	e8 bd 9b 00 00       	call   be60 <strlen>
    22a3:	8d 44 06 02          	lea    0x2(%esi,%eax,1),%eax
    22a7:	83 c4 10             	add    $0x10,%esp
    22aa:	39 d8                	cmp    %ebx,%eax
    22ac:	77 c5                	ja     2273 <test_reading_cgroup_files+0x8e3>
    22ae:	83 ec 0c             	sub    $0xc,%esp
    22b1:	68 ab 01 00 00       	push   $0x1ab
    22b6:	68 30 c8 00 00       	push   $0xc830
    22bb:	ff 75 08             	pushl  0x8(%ebp)
    22be:	68 d4 e5 00 00       	push   $0xe5d4
    22c3:	6a 01                	push   $0x1
    22c5:	e8 d6 a0 00 00       	call   c3a0 <printf>
    22ca:	c7 05 40 42 01 00 01 	movl   $0x1,0x14240
    22d1:	00 00 00 
    22d4:	83 c4 20             	add    $0x20,%esp
    22d7:	e9 80 f9 ff ff       	jmp    1c5c <test_reading_cgroup_files+0x2cc>
    ASSERT_TRUE(read_file(TEST_1_MEM_MIN, 1));
    22dc:	83 ec 08             	sub    $0x8,%esp
    22df:	83 c3 01             	add    $0x1,%ebx
    22e2:	68 18 c8 00 00       	push   $0xc818
    22e7:	6a 01                	push   $0x1
    22e9:	e8 b2 a0 00 00       	call   c3a0 <printf>
    22ee:	83 c4 10             	add    $0x10,%esp
    22f1:	83 ec 0c             	sub    $0xc,%esp
    22f4:	68 02 cc 00 00       	push   $0xcc02
    22f9:	e8 62 9b 00 00       	call   be60 <strlen>
    22fe:	89 c6                	mov    %eax,%esi
    2300:	c7 04 24 25 c8 00 00 	movl   $0xc825,(%esp)
    2307:	e8 54 9b 00 00       	call   be60 <strlen>
    230c:	8d 44 06 02          	lea    0x2(%esi,%eax,1),%eax
    2310:	83 c4 10             	add    $0x10,%esp
    2313:	39 d8                	cmp    %ebx,%eax
    2315:	77 c5                	ja     22dc <test_reading_cgroup_files+0x94c>
    2317:	83 ec 0c             	sub    $0xc,%esp
    231a:	68 ac 01 00 00       	push   $0x1ac
    231f:	68 30 c8 00 00       	push   $0xc830
    2324:	ff 75 08             	pushl  0x8(%ebp)
    2327:	68 1c e6 00 00       	push   $0xe61c
    232c:	6a 01                	push   $0x1
    232e:	e8 6d a0 00 00       	call   c3a0 <printf>
    2333:	c7 05 40 42 01 00 01 	movl   $0x1,0x14240
    233a:	00 00 00 
    233d:	83 c4 20             	add    $0x20,%esp
    2340:	e9 17 f9 ff ff       	jmp    1c5c <test_reading_cgroup_files+0x2cc>
    2345:	8d 74 26 00          	lea    0x0(%esi,%eiz,1),%esi
    2349:	8d bc 27 00 00 00 00 	lea    0x0(%edi,%eiz,1),%edi

00002350 <test_enable_and_disable_controller>:
    ASSERT_TRUE(read_file(TEST_1_MEM_STAT, 1));
}

int test_enable_and_disable_controller(int controller_type)
{
    2350:	55                   	push   %ebp
    2351:	89 e5                	mov    %esp,%ebp
    2353:	57                   	push   %edi
    2354:	56                   	push   %esi
    2355:	53                   	push   %ebx
    2356:	83 ec 18             	sub    $0x18,%esp
    2359:	8b 75 08             	mov    0x8(%ebp),%esi
    char *buf;
    int result = 1;

    // Enable given controller.
    buf = build_activate_disable_activate(controller_type);
    235c:	56                   	push   %esi
    235d:	e8 1e e5 ff ff       	call   880 <build_activate_disable_activate>
    if (!buf) {
    2362:	83 c4 10             	add    $0x10,%esp
    2365:	85 c0                	test   %eax,%eax
    2367:	74 67                	je     23d0 <test_enable_and_disable_controller+0x80>
        return 0;
    }
    result &= write_file(TEST_1_CGROUP_SUBTREE_CONTROL, buf);
    2369:	83 ec 08             	sub    $0x8,%esp
    236c:	89 c3                	mov    %eax,%ebx
    236e:	50                   	push   %eax
    236f:	68 b8 d3 00 00       	push   $0xd3b8
    2374:	e8 67 df ff ff       	call   2e0 <write_file>
    2379:	89 c7                	mov    %eax,%edi
    free(buf);
    237b:	89 1c 24             	mov    %ebx,(%esp)
    237e:	e8 cd a1 00 00       	call   c550 <free>


    // Check that the given controller is really enabled.
    result &= verify_controller_enabled(controller_type);
    2383:	89 34 24             	mov    %esi,(%esp)
    2386:	e8 35 e1 ff ff       	call   4c0 <verify_controller_enabled>
    238b:	21 f8                	and    %edi,%eax

    // Disable the given controller.
    buf = build_activate_disable(controller_type);
    238d:	89 34 24             	mov    %esi,(%esp)
    result &= write_file(TEST_1_CGROUP_SUBTREE_CONTROL, buf);
    free(buf);


    // Check that the given controller is really enabled.
    result &= verify_controller_enabled(controller_type);
    2390:	83 e0 01             	and    $0x1,%eax
    2393:	89 c3                	mov    %eax,%ebx

    // Disable the given controller.
    buf = build_activate_disable(controller_type);
    2395:	e8 86 e5 ff ff       	call   920 <build_activate_disable>
    if (!buf) {
    239a:	83 c4 10             	add    $0x10,%esp
    239d:	85 c0                	test   %eax,%eax

    // Check that the given controller is really enabled.
    result &= verify_controller_enabled(controller_type);

    // Disable the given controller.
    buf = build_activate_disable(controller_type);
    239f:	89 c7                	mov    %eax,%edi
    if (!buf) {
    23a1:	74 2d                	je     23d0 <test_enable_and_disable_controller+0x80>
        return 0;
    }
    result &= write_file(TEST_1_CGROUP_SUBTREE_CONTROL, buf);
    23a3:	83 ec 08             	sub    $0x8,%esp
    23a6:	50                   	push   %eax
    23a7:	68 b8 d3 00 00       	push   $0xd3b8
    23ac:	e8 2f df ff ff       	call   2e0 <write_file>
    free(buf);
    23b1:	89 3c 24             	mov    %edi,(%esp)
    // Disable the given controller.
    buf = build_activate_disable(controller_type);
    if (!buf) {
        return 0;
    }
    result &= write_file(TEST_1_CGROUP_SUBTREE_CONTROL, buf);
    23b4:	21 c3                	and    %eax,%ebx
    free(buf);
    23b6:	e8 95 a1 00 00       	call   c550 <free>

    // Check that the given controller is really disabled.
    result &= verify_controller_disabled(controller_type);
    23bb:	89 34 24             	mov    %esi,(%esp)
    23be:	e8 9d e1 ff ff       	call   560 <verify_controller_disabled>

    return result;
    23c3:	83 c4 10             	add    $0x10,%esp
}
    23c6:	8d 65 f4             	lea    -0xc(%ebp),%esp
    free(buf);

    // Check that the given controller is really disabled.
    result &= verify_controller_disabled(controller_type);

    return result;
    23c9:	21 d8                	and    %ebx,%eax
}
    23cb:	5b                   	pop    %ebx
    23cc:	5e                   	pop    %esi
    23cd:	5f                   	pop    %edi
    23ce:	5d                   	pop    %ebp
    23cf:	c3                   	ret    
    23d0:	8d 65 f4             	lea    -0xc(%ebp),%esp
    int result = 1;

    // Enable given controller.
    buf = build_activate_disable_activate(controller_type);
    if (!buf) {
        return 0;
    23d3:	31 c0                	xor    %eax,%eax

    // Check that the given controller is really disabled.
    result &= verify_controller_disabled(controller_type);

    return result;
}
    23d5:	5b                   	pop    %ebx
    23d6:	5e                   	pop    %esi
    23d7:	5f                   	pop    %edi
    23d8:	5d                   	pop    %ebp
    23d9:	c3                   	ret    
    23da:	8d b6 00 00 00 00    	lea    0x0(%esi),%esi

000023e0 <test_enable_and_disable_all_controllers>:

TEST(test_enable_and_disable_all_controllers)
{
    23e0:	55                   	push   %ebp
    23e1:	89 e5                	mov    %esp,%ebp
    23e3:	56                   	push   %esi
    23e4:	53                   	push   %ebx
    for (int i = CPU_CNT; i < CPU_CNT + CONTROLLER_COUNT; i++) {
    23e5:	31 db                	xor    %ebx,%ebx
        ASSERT_TRUE(test_enable_and_disable_controller(i));
    23e7:	83 ec 0c             	sub    $0xc,%esp
    23ea:	53                   	push   %ebx
    23eb:	e8 60 ff ff ff       	call   2350 <test_enable_and_disable_controller>
    23f0:	83 c4 10             	add    $0x10,%esp
    23f3:	85 c0                	test   %eax,%eax
    23f5:	74 19                	je     2410 <test_enable_and_disable_all_controllers+0x30>
    return result;
}

TEST(test_enable_and_disable_all_controllers)
{
    for (int i = CPU_CNT; i < CPU_CNT + CONTROLLER_COUNT; i++) {
    23f7:	83 c3 01             	add    $0x1,%ebx
    23fa:	83 fb 04             	cmp    $0x4,%ebx
    23fd:	75 e8                	jne    23e7 <test_enable_and_disable_all_controllers+0x7>
        ASSERT_TRUE(test_enable_and_disable_controller(i));
    }
}
    23ff:	8d 65 f8             	lea    -0x8(%ebp),%esp
    2402:	5b                   	pop    %ebx
    2403:	5e                   	pop    %esi
    2404:	5d                   	pop    %ebp
    2405:	c3                   	ret    
    2406:	8d 76 00             	lea    0x0(%esi),%esi
    2409:	8d bc 27 00 00 00 00 	lea    0x0(%edi,%eiz,1),%edi
    2410:	31 db                	xor    %ebx,%ebx
    2412:	eb 19                	jmp    242d <test_enable_and_disable_all_controllers+0x4d>
    2414:	8d 74 26 00          	lea    0x0(%esi,%eiz,1),%esi
}

TEST(test_enable_and_disable_all_controllers)
{
    for (int i = CPU_CNT; i < CPU_CNT + CONTROLLER_COUNT; i++) {
        ASSERT_TRUE(test_enable_and_disable_controller(i));
    2418:	83 ec 08             	sub    $0x8,%esp
    241b:	83 c3 01             	add    $0x1,%ebx
    241e:	68 18 c8 00 00       	push   $0xc818
    2423:	6a 01                	push   $0x1
    2425:	e8 76 9f 00 00       	call   c3a0 <printf>
    242a:	83 c4 10             	add    $0x10,%esp
    242d:	83 ec 0c             	sub    $0xc,%esp
    2430:	68 ac e6 00 00       	push   $0xe6ac
    2435:	e8 26 9a 00 00       	call   be60 <strlen>
    243a:	89 c6                	mov    %eax,%esi
    243c:	c7 04 24 25 c8 00 00 	movl   $0xc825,(%esp)
    2443:	e8 18 9a 00 00       	call   be60 <strlen>
    2448:	8d 44 06 02          	lea    0x2(%esi,%eax,1),%eax
    244c:	83 c4 10             	add    $0x10,%esp
    244f:	39 d8                	cmp    %ebx,%eax
    2451:	77 c5                	ja     2418 <test_enable_and_disable_all_controllers+0x38>
    2453:	83 ec 0c             	sub    $0xc,%esp
    2456:	68 d2 01 00 00       	push   $0x1d2
    245b:	68 30 c8 00 00       	push   $0xc830
    2460:	ff 75 08             	pushl  0x8(%ebp)
    2463:	68 d4 e6 00 00       	push   $0xe6d4
    2468:	6a 01                	push   $0x1
    246a:	e8 31 9f 00 00       	call   c3a0 <printf>
    246f:	c7 05 40 42 01 00 01 	movl   $0x1,0x14240
    2476:	00 00 00 
    2479:	83 c4 20             	add    $0x20,%esp
    }
}
    247c:	8d 65 f8             	lea    -0x8(%ebp),%esp
    247f:	5b                   	pop    %ebx
    2480:	5e                   	pop    %esi
    2481:	5d                   	pop    %ebp
    2482:	c3                   	ret    
    2483:	8d b6 00 00 00 00    	lea    0x0(%esi),%esi
    2489:	8d bc 27 00 00 00 00 	lea    0x0(%edi,%eiz,1),%edi

00002490 <test_limiting_cpu_max_and_period>:

TEST(test_limiting_cpu_max_and_period)
{
    2490:	55                   	push   %ebp
    2491:	89 e5                	mov    %esp,%ebp
    2493:	57                   	push   %edi
    2494:	56                   	push   %esi
    2495:	53                   	push   %ebx
    2496:	31 db                	xor    %ebx,%ebx
    2498:	83 ec 18             	sub    $0x18,%esp
    249b:	8b 7d 08             	mov    0x8(%ebp),%edi
    // Enable cpu controller
    ASSERT_TRUE(enable_controller(CPU_CNT));
    249e:	6a 00                	push   $0x0
    24a0:	e8 7b df ff ff       	call   420 <enable_controller>
    24a5:	83 c4 10             	add    $0x10,%esp
    24a8:	85 c0                	test   %eax,%eax
    24aa:	74 19                	je     24c5 <test_limiting_cpu_max_and_period+0x35>
    24ac:	eb 72                	jmp    2520 <test_limiting_cpu_max_and_period+0x90>
    24ae:	66 90                	xchg   %ax,%ax
    24b0:	83 ec 08             	sub    $0x8,%esp
    24b3:	83 c3 01             	add    $0x1,%ebx
    24b6:	68 18 c8 00 00       	push   $0xc818
    24bb:	6a 01                	push   $0x1
    24bd:	e8 de 9e 00 00       	call   c3a0 <printf>
    24c2:	83 c4 10             	add    $0x10,%esp
    24c5:	83 ec 0c             	sub    $0xc,%esp
    24c8:	68 3d cc 00 00       	push   $0xcc3d
    24cd:	e8 8e 99 00 00       	call   be60 <strlen>
    24d2:	89 c6                	mov    %eax,%esi
    24d4:	c7 04 24 25 c8 00 00 	movl   $0xc825,(%esp)
    24db:	e8 80 99 00 00       	call   be60 <strlen>
    24e0:	8d 44 06 02          	lea    0x2(%esi,%eax,1),%eax
    24e4:	83 c4 10             	add    $0x10,%esp
    24e7:	39 d8                	cmp    %ebx,%eax
    24e9:	77 c5                	ja     24b0 <test_limiting_cpu_max_and_period+0x20>
    24eb:	83 ec 0c             	sub    $0xc,%esp
    24ee:	68 d9 01 00 00       	push   $0x1d9
    24f3:	68 30 c8 00 00       	push   $0xc830
    24f8:	57                   	push   %edi
    24f9:	68 24 e7 00 00       	push   $0xe724
    24fe:	6a 01                	push   $0x1
    2500:	e8 9b 9e 00 00       	call   c3a0 <printf>
    2505:	c7 05 40 42 01 00 01 	movl   $0x1,0x14240
    250c:	00 00 00 
    250f:	83 c4 20             	add    $0x20,%esp
    // Check changes
    ASSERT_FALSE(strcmp(read_file(TEST_1_CPU_MAX, 0), "max - 1000\nperiod - 20000\n"));

    // Disable cpu controller
    ASSERT_TRUE(disable_controller(CPU_CNT));
}
    2512:	8d 65 f4             	lea    -0xc(%ebp),%esp
    2515:	5b                   	pop    %ebx
    2516:	5e                   	pop    %esi
    2517:	5f                   	pop    %edi
    2518:	5d                   	pop    %ebp
    2519:	c3                   	ret    
    251a:	8d b6 00 00 00 00    	lea    0x0(%esi),%esi
{
    // Enable cpu controller
    ASSERT_TRUE(enable_controller(CPU_CNT));

    // Update only max
    ASSERT_TRUE(write_file(TEST_1_CPU_MAX, "5000"));
    2520:	83 ec 08             	sub    $0x8,%esp
    2523:	31 db                	xor    %ebx,%ebx
    2525:	68 58 cc 00 00       	push   $0xcc58
    252a:	68 3e ca 00 00       	push   $0xca3e
    252f:	e8 ac dd ff ff       	call   2e0 <write_file>
    2534:	83 c4 10             	add    $0x10,%esp
    2537:	85 c0                	test   %eax,%eax
    2539:	74 1a                	je     2555 <test_limiting_cpu_max_and_period+0xc5>
    253b:	eb 73                	jmp    25b0 <test_limiting_cpu_max_and_period+0x120>
    253d:	8d 76 00             	lea    0x0(%esi),%esi
    2540:	83 ec 08             	sub    $0x8,%esp
    2543:	83 c3 01             	add    $0x1,%ebx
    2546:	68 18 c8 00 00       	push   $0xc818
    254b:	6a 01                	push   $0x1
    254d:	e8 4e 9e 00 00       	call   c3a0 <printf>
    2552:	83 c4 10             	add    $0x10,%esp
    2555:	83 ec 0c             	sub    $0xc,%esp
    2558:	68 68 e7 00 00       	push   $0xe768
    255d:	e8 fe 98 00 00       	call   be60 <strlen>
    2562:	89 c6                	mov    %eax,%esi
    2564:	c7 04 24 25 c8 00 00 	movl   $0xc825,(%esp)
    256b:	e8 f0 98 00 00       	call   be60 <strlen>
    2570:	8d 44 06 02          	lea    0x2(%esi,%eax,1),%eax
    2574:	83 c4 10             	add    $0x10,%esp
    2577:	39 d8                	cmp    %ebx,%eax
    2579:	77 c5                	ja     2540 <test_limiting_cpu_max_and_period+0xb0>
    257b:	83 ec 0c             	sub    $0xc,%esp
    257e:	68 dc 01 00 00       	push   $0x1dc
    2583:	68 30 c8 00 00       	push   $0xc830
    2588:	57                   	push   %edi
    2589:	68 8c e7 00 00       	push   $0xe78c
    258e:	6a 01                	push   $0x1
    2590:	e8 0b 9e 00 00       	call   c3a0 <printf>
    2595:	c7 05 40 42 01 00 01 	movl   $0x1,0x14240
    259c:	00 00 00 
    259f:	83 c4 20             	add    $0x20,%esp
    // Check changes
    ASSERT_FALSE(strcmp(read_file(TEST_1_CPU_MAX, 0), "max - 1000\nperiod - 20000\n"));

    // Disable cpu controller
    ASSERT_TRUE(disable_controller(CPU_CNT));
}
    25a2:	8d 65 f4             	lea    -0xc(%ebp),%esp
    25a5:	5b                   	pop    %ebx
    25a6:	5e                   	pop    %esi
    25a7:	5f                   	pop    %edi
    25a8:	5d                   	pop    %ebp
    25a9:	c3                   	ret    
    25aa:	8d b6 00 00 00 00    	lea    0x0(%esi),%esi

    // Update only max
    ASSERT_TRUE(write_file(TEST_1_CPU_MAX, "5000"));

    // Check changes
    ASSERT_FALSE(strcmp(read_file(TEST_1_CPU_MAX, 0), "max - 5000\nperiod - 100000\n"));
    25b0:	83 ec 08             	sub    $0x8,%esp
    25b3:	6a 00                	push   $0x0
    25b5:	68 3e ca 00 00       	push   $0xca3e
    25ba:	e8 61 dc ff ff       	call   220 <read_file>
    25bf:	5b                   	pop    %ebx
    25c0:	5e                   	pop    %esi
    25c1:	68 5d cc 00 00       	push   $0xcc5d
    25c6:	50                   	push   %eax
    25c7:	31 db                	xor    %ebx,%ebx
    25c9:	e8 b2 97 00 00       	call   bd80 <strcmp>
    25ce:	83 c4 10             	add    $0x10,%esp
    25d1:	85 c0                	test   %eax,%eax
    25d3:	75 20                	jne    25f5 <test_limiting_cpu_max_and_period+0x165>
    25d5:	eb 70                	jmp    2647 <test_limiting_cpu_max_and_period+0x1b7>
    25d7:	89 f6                	mov    %esi,%esi
    25d9:	8d bc 27 00 00 00 00 	lea    0x0(%edi,%eiz,1),%edi
    25e0:	83 ec 08             	sub    $0x8,%esp
    25e3:	83 c3 01             	add    $0x1,%ebx
    25e6:	68 18 c8 00 00       	push   $0xc818
    25eb:	6a 01                	push   $0x1
    25ed:	e8 ae 9d 00 00       	call   c3a0 <printf>
    25f2:	83 c4 10             	add    $0x10,%esp
    25f5:	83 ec 0c             	sub    $0xc,%esp
    25f8:	68 d8 e7 00 00       	push   $0xe7d8
    25fd:	e8 5e 98 00 00       	call   be60 <strlen>
    2602:	89 c6                	mov    %eax,%esi
    2604:	c7 04 24 25 c8 00 00 	movl   $0xc825,(%esp)
    260b:	e8 50 98 00 00       	call   be60 <strlen>
    2610:	8d 44 06 02          	lea    0x2(%esi,%eax,1),%eax
    2614:	83 c4 10             	add    $0x10,%esp
    2617:	39 d8                	cmp    %ebx,%eax
    2619:	77 c5                	ja     25e0 <test_limiting_cpu_max_and_period+0x150>
    261b:	83 ec 0c             	sub    $0xc,%esp
    261e:	68 df 01 00 00       	push   $0x1df
    2623:	68 30 c8 00 00       	push   $0xc830
    2628:	57                   	push   %edi
    2629:	68 20 e8 00 00       	push   $0xe820
    262e:	6a 01                	push   $0x1
    2630:	e8 6b 9d 00 00       	call   c3a0 <printf>
    2635:	c7 05 40 42 01 00 01 	movl   $0x1,0x14240
    263c:	00 00 00 
    263f:	83 c4 20             	add    $0x20,%esp
    2642:	e9 cb fe ff ff       	jmp    2512 <test_limiting_cpu_max_and_period+0x82>

    // Update max & period
    ASSERT_TRUE(write_file(TEST_1_CPU_MAX, "1000,20000"));
    2647:	83 ec 08             	sub    $0x8,%esp
    264a:	31 db                	xor    %ebx,%ebx
    264c:	68 79 cc 00 00       	push   $0xcc79
    2651:	68 3e ca 00 00       	push   $0xca3e
    2656:	e8 85 dc ff ff       	call   2e0 <write_file>
    265b:	83 c4 10             	add    $0x10,%esp
    265e:	85 c0                	test   %eax,%eax
    2660:	74 1b                	je     267d <test_limiting_cpu_max_and_period+0x1ed>
    2662:	eb 6b                	jmp    26cf <test_limiting_cpu_max_and_period+0x23f>
    2664:	8d 74 26 00          	lea    0x0(%esi,%eiz,1),%esi
    2668:	83 ec 08             	sub    $0x8,%esp
    266b:	83 c3 01             	add    $0x1,%ebx
    266e:	68 18 c8 00 00       	push   $0xc818
    2673:	6a 01                	push   $0x1
    2675:	e8 26 9d 00 00       	call   c3a0 <printf>
    267a:	83 c4 10             	add    $0x10,%esp
    267d:	83 ec 0c             	sub    $0xc,%esp
    2680:	68 90 e8 00 00       	push   $0xe890
    2685:	e8 d6 97 00 00       	call   be60 <strlen>
    268a:	89 c6                	mov    %eax,%esi
    268c:	c7 04 24 25 c8 00 00 	movl   $0xc825,(%esp)
    2693:	e8 c8 97 00 00       	call   be60 <strlen>
    2698:	8d 44 06 02          	lea    0x2(%esi,%eax,1),%eax
    269c:	83 c4 10             	add    $0x10,%esp
    269f:	39 d8                	cmp    %ebx,%eax
    26a1:	77 c5                	ja     2668 <test_limiting_cpu_max_and_period+0x1d8>
    26a3:	83 ec 0c             	sub    $0xc,%esp
    26a6:	68 e2 01 00 00       	push   $0x1e2
    26ab:	68 30 c8 00 00       	push   $0xc830
    26b0:	57                   	push   %edi
    26b1:	68 bc e8 00 00       	push   $0xe8bc
    26b6:	6a 01                	push   $0x1
    26b8:	e8 e3 9c 00 00       	call   c3a0 <printf>
    26bd:	c7 05 40 42 01 00 01 	movl   $0x1,0x14240
    26c4:	00 00 00 
    26c7:	83 c4 20             	add    $0x20,%esp
    26ca:	e9 43 fe ff ff       	jmp    2512 <test_limiting_cpu_max_and_period+0x82>

    // Check changes
    ASSERT_FALSE(strcmp(read_file(TEST_1_CPU_MAX, 0), "max - 1000\nperiod - 20000\n"));
    26cf:	83 ec 08             	sub    $0x8,%esp
    26d2:	31 db                	xor    %ebx,%ebx
    26d4:	6a 00                	push   $0x0
    26d6:	68 3e ca 00 00       	push   $0xca3e
    26db:	e8 40 db ff ff       	call   220 <read_file>
    26e0:	5a                   	pop    %edx
    26e1:	59                   	pop    %ecx
    26e2:	68 84 cc 00 00       	push   $0xcc84
    26e7:	50                   	push   %eax
    26e8:	e8 93 96 00 00       	call   bd80 <strcmp>
    26ed:	83 c4 10             	add    $0x10,%esp
    26f0:	85 c0                	test   %eax,%eax
    26f2:	75 21                	jne    2715 <test_limiting_cpu_max_and_period+0x285>
    26f4:	eb 71                	jmp    2767 <test_limiting_cpu_max_and_period+0x2d7>
    26f6:	8d 76 00             	lea    0x0(%esi),%esi
    26f9:	8d bc 27 00 00 00 00 	lea    0x0(%edi,%eiz,1),%edi
    2700:	83 ec 08             	sub    $0x8,%esp
    2703:	83 c3 01             	add    $0x1,%ebx
    2706:	68 18 c8 00 00       	push   $0xc818
    270b:	6a 01                	push   $0x1
    270d:	e8 8e 9c 00 00       	call   c3a0 <printf>
    2712:	83 c4 10             	add    $0x10,%esp
    2715:	83 ec 0c             	sub    $0xc,%esp
    2718:	68 10 e9 00 00       	push   $0xe910
    271d:	e8 3e 97 00 00       	call   be60 <strlen>
    2722:	89 c6                	mov    %eax,%esi
    2724:	c7 04 24 25 c8 00 00 	movl   $0xc825,(%esp)
    272b:	e8 30 97 00 00       	call   be60 <strlen>
    2730:	8d 44 06 02          	lea    0x2(%esi,%eax,1),%eax
    2734:	83 c4 10             	add    $0x10,%esp
    2737:	39 d8                	cmp    %ebx,%eax
    2739:	77 c5                	ja     2700 <test_limiting_cpu_max_and_period+0x270>
    273b:	83 ec 0c             	sub    $0xc,%esp
    273e:	68 e5 01 00 00       	push   $0x1e5
    2743:	68 30 c8 00 00       	push   $0xc830
    2748:	57                   	push   %edi
    2749:	68 58 e9 00 00       	push   $0xe958
    274e:	6a 01                	push   $0x1
    2750:	e8 4b 9c 00 00       	call   c3a0 <printf>
    2755:	c7 05 40 42 01 00 01 	movl   $0x1,0x14240
    275c:	00 00 00 
    275f:	83 c4 20             	add    $0x20,%esp
    2762:	e9 ab fd ff ff       	jmp    2512 <test_limiting_cpu_max_and_period+0x82>

    // Disable cpu controller
    ASSERT_TRUE(disable_controller(CPU_CNT));
    2767:	83 ec 0c             	sub    $0xc,%esp
    276a:	31 db                	xor    %ebx,%ebx
    276c:	6a 00                	push   $0x0
    276e:	e8 fd dc ff ff       	call   470 <disable_controller>
    2773:	83 c4 10             	add    $0x10,%esp
    2776:	85 c0                	test   %eax,%eax
    2778:	74 1b                	je     2795 <test_limiting_cpu_max_and_period+0x305>
    277a:	e9 93 fd ff ff       	jmp    2512 <test_limiting_cpu_max_and_period+0x82>
    277f:	90                   	nop
    2780:	83 ec 08             	sub    $0x8,%esp
    2783:	83 c3 01             	add    $0x1,%ebx
    2786:	68 18 c8 00 00       	push   $0xc818
    278b:	6a 01                	push   $0x1
    278d:	e8 0e 9c 00 00       	call   c3a0 <printf>
    2792:	83 c4 10             	add    $0x10,%esp
    2795:	83 ec 0c             	sub    $0xc,%esp
    2798:	68 9f cc 00 00       	push   $0xcc9f
    279d:	e8 be 96 00 00       	call   be60 <strlen>
    27a2:	89 c6                	mov    %eax,%esi
    27a4:	c7 04 24 25 c8 00 00 	movl   $0xc825,(%esp)
    27ab:	e8 b0 96 00 00       	call   be60 <strlen>
    27b0:	8d 44 06 02          	lea    0x2(%esi,%eax,1),%eax
    27b4:	83 c4 10             	add    $0x10,%esp
    27b7:	39 d8                	cmp    %ebx,%eax
    27b9:	77 c5                	ja     2780 <test_limiting_cpu_max_and_period+0x2f0>
    27bb:	83 ec 0c             	sub    $0xc,%esp
    27be:	68 e8 01 00 00       	push   $0x1e8
    27c3:	68 30 c8 00 00       	push   $0xc830
    27c8:	57                   	push   %edi
    27c9:	68 c8 e9 00 00       	push   $0xe9c8
    27ce:	6a 01                	push   $0x1
    27d0:	e8 cb 9b 00 00       	call   c3a0 <printf>
    27d5:	c7 05 40 42 01 00 01 	movl   $0x1,0x14240
    27dc:	00 00 00 
    27df:	83 c4 20             	add    $0x20,%esp
    27e2:	e9 2b fd ff ff       	jmp    2512 <test_limiting_cpu_max_and_period+0x82>
    27e7:	89 f6                	mov    %esi,%esi
    27e9:	8d bc 27 00 00 00 00 	lea    0x0(%edi,%eiz,1),%edi

000027f0 <test_limiting_pids>:
}

TEST(test_limiting_pids)
{
    27f0:	55                   	push   %ebp
    27f1:	89 e5                	mov    %esp,%ebp
    27f3:	56                   	push   %esi
    27f4:	53                   	push   %ebx
    27f5:	31 db                	xor    %ebx,%ebx
    // Enable pid controller
    ASSERT_TRUE(enable_controller(PID_CNT));
    27f7:	83 ec 0c             	sub    $0xc,%esp
    27fa:	6a 01                	push   $0x1
    27fc:	e8 1f dc ff ff       	call   420 <enable_controller>
    2801:	83 c4 10             	add    $0x10,%esp
    2804:	85 c0                	test   %eax,%eax
    2806:	74 1d                	je     2825 <test_limiting_pids+0x35>
    2808:	eb 76                	jmp    2880 <test_limiting_pids+0x90>
    280a:	8d b6 00 00 00 00    	lea    0x0(%esi),%esi
    2810:	83 ec 08             	sub    $0x8,%esp
    2813:	83 c3 01             	add    $0x1,%ebx
    2816:	68 18 c8 00 00       	push   $0xc818
    281b:	6a 01                	push   $0x1
    281d:	e8 7e 9b 00 00       	call   c3a0 <printf>
    2822:	83 c4 10             	add    $0x10,%esp
    2825:	83 ec 0c             	sub    $0xc,%esp
    2828:	68 bb cc 00 00       	push   $0xccbb
    282d:	e8 2e 96 00 00       	call   be60 <strlen>
    2832:	89 c6                	mov    %eax,%esi
    2834:	c7 04 24 25 c8 00 00 	movl   $0xc825,(%esp)
    283b:	e8 20 96 00 00       	call   be60 <strlen>
    2840:	8d 44 06 02          	lea    0x2(%esi,%eax,1),%eax
    2844:	83 c4 10             	add    $0x10,%esp
    2847:	39 d8                	cmp    %ebx,%eax
    2849:	77 c5                	ja     2810 <test_limiting_pids+0x20>
    284b:	83 ec 0c             	sub    $0xc,%esp
    284e:	68 ee 01 00 00       	push   $0x1ee
    2853:	68 30 c8 00 00       	push   $0xc830
    2858:	ff 75 08             	pushl  0x8(%ebp)
    285b:	68 10 ea 00 00       	push   $0xea10
    2860:	6a 01                	push   $0x1
    2862:	e8 39 9b 00 00       	call   c3a0 <printf>
    2867:	c7 05 40 42 01 00 01 	movl   $0x1,0x14240
    286e:	00 00 00 
    2871:	83 c4 20             	add    $0x20,%esp
    // Restore to 64
    ASSERT_TRUE(write_file(TEST_1_PID_MAX, "64"));

    // Check changes
    ASSERT_FALSE(strcmp(read_file(TEST_1_PID_MAX, 0), "max - 64\n"));
}
    2874:	8d 65 f8             	lea    -0x8(%ebp),%esp
    2877:	5b                   	pop    %ebx
    2878:	5e                   	pop    %esi
    2879:	5d                   	pop    %ebp
    287a:	c3                   	ret    
    287b:	90                   	nop
    287c:	8d 74 26 00          	lea    0x0(%esi,%eiz,1),%esi
{
    // Enable pid controller
    ASSERT_TRUE(enable_controller(PID_CNT));

    // Update pid limit
    ASSERT_TRUE(write_file(TEST_1_PID_MAX, "10"));
    2880:	83 ec 08             	sub    $0x8,%esp
    2883:	31 db                	xor    %ebx,%ebx
    2885:	68 d6 cc 00 00       	push   $0xccd6
    288a:	68 84 ca 00 00       	push   $0xca84
    288f:	e8 4c da ff ff       	call   2e0 <write_file>
    2894:	83 c4 10             	add    $0x10,%esp
    2897:	85 c0                	test   %eax,%eax
    2899:	74 1a                	je     28b5 <test_limiting_pids+0xc5>
    289b:	eb 73                	jmp    2910 <test_limiting_pids+0x120>
    289d:	8d 76 00             	lea    0x0(%esi),%esi
    28a0:	83 ec 08             	sub    $0x8,%esp
    28a3:	83 c3 01             	add    $0x1,%ebx
    28a6:	68 18 c8 00 00       	push   $0xc818
    28ab:	6a 01                	push   $0x1
    28ad:	e8 ee 9a 00 00       	call   c3a0 <printf>
    28b2:	83 c4 10             	add    $0x10,%esp
    28b5:	83 ec 0c             	sub    $0xc,%esp
    28b8:	68 54 ea 00 00       	push   $0xea54
    28bd:	e8 9e 95 00 00       	call   be60 <strlen>
    28c2:	89 c6                	mov    %eax,%esi
    28c4:	c7 04 24 25 c8 00 00 	movl   $0xc825,(%esp)
    28cb:	e8 90 95 00 00       	call   be60 <strlen>
    28d0:	8d 44 06 02          	lea    0x2(%esi,%eax,1),%eax
    28d4:	83 c4 10             	add    $0x10,%esp
    28d7:	39 d8                	cmp    %ebx,%eax
    28d9:	77 c5                	ja     28a0 <test_limiting_pids+0xb0>
    28db:	83 ec 0c             	sub    $0xc,%esp
    28de:	68 f1 01 00 00       	push   $0x1f1
    28e3:	68 30 c8 00 00       	push   $0xc830
    28e8:	ff 75 08             	pushl  0x8(%ebp)
    28eb:	68 78 ea 00 00       	push   $0xea78
    28f0:	6a 01                	push   $0x1
    28f2:	e8 a9 9a 00 00       	call   c3a0 <printf>
    28f7:	c7 05 40 42 01 00 01 	movl   $0x1,0x14240
    28fe:	00 00 00 
    2901:	83 c4 20             	add    $0x20,%esp
    // Restore to 64
    ASSERT_TRUE(write_file(TEST_1_PID_MAX, "64"));

    // Check changes
    ASSERT_FALSE(strcmp(read_file(TEST_1_PID_MAX, 0), "max - 64\n"));
}
    2904:	8d 65 f8             	lea    -0x8(%ebp),%esp
    2907:	5b                   	pop    %ebx
    2908:	5e                   	pop    %esi
    2909:	5d                   	pop    %ebp
    290a:	c3                   	ret    
    290b:	90                   	nop
    290c:	8d 74 26 00          	lea    0x0(%esi,%eiz,1),%esi

    // Update pid limit
    ASSERT_TRUE(write_file(TEST_1_PID_MAX, "10"));

    // Check changes
    ASSERT_FALSE(strcmp(read_file(TEST_1_PID_MAX, 0), "max - 10\n"));
    2910:	83 ec 08             	sub    $0x8,%esp
    2913:	6a 00                	push   $0x0
    2915:	68 84 ca 00 00       	push   $0xca84
    291a:	e8 01 d9 ff ff       	call   220 <read_file>
    291f:	5b                   	pop    %ebx
    2920:	5e                   	pop    %esi
    2921:	68 d9 cc 00 00       	push   $0xccd9
    2926:	50                   	push   %eax
    2927:	31 db                	xor    %ebx,%ebx
    2929:	e8 52 94 00 00       	call   bd80 <strcmp>
    292e:	83 c4 10             	add    $0x10,%esp
    2931:	85 c0                	test   %eax,%eax
    2933:	75 20                	jne    2955 <test_limiting_pids+0x165>
    2935:	eb 72                	jmp    29a9 <test_limiting_pids+0x1b9>
    2937:	89 f6                	mov    %esi,%esi
    2939:	8d bc 27 00 00 00 00 	lea    0x0(%edi,%eiz,1),%edi
    2940:	83 ec 08             	sub    $0x8,%esp
    2943:	83 c3 01             	add    $0x1,%ebx
    2946:	68 18 c8 00 00       	push   $0xc818
    294b:	6a 01                	push   $0x1
    294d:	e8 4e 9a 00 00       	call   c3a0 <printf>
    2952:	83 c4 10             	add    $0x10,%esp
    2955:	83 ec 0c             	sub    $0xc,%esp
    2958:	68 c4 ea 00 00       	push   $0xeac4
    295d:	e8 fe 94 00 00       	call   be60 <strlen>
    2962:	89 c6                	mov    %eax,%esi
    2964:	c7 04 24 25 c8 00 00 	movl   $0xc825,(%esp)
    296b:	e8 f0 94 00 00       	call   be60 <strlen>
    2970:	8d 44 06 02          	lea    0x2(%esi,%eax,1),%eax
    2974:	83 c4 10             	add    $0x10,%esp
    2977:	39 d8                	cmp    %ebx,%eax
    2979:	77 c5                	ja     2940 <test_limiting_pids+0x150>
    297b:	83 ec 0c             	sub    $0xc,%esp
    297e:	68 f4 01 00 00       	push   $0x1f4
    2983:	68 30 c8 00 00       	push   $0xc830
    2988:	ff 75 08             	pushl  0x8(%ebp)
    298b:	68 f8 ea 00 00       	push   $0xeaf8
    2990:	6a 01                	push   $0x1
    2992:	e8 09 9a 00 00       	call   c3a0 <printf>
    2997:	c7 05 40 42 01 00 01 	movl   $0x1,0x14240
    299e:	00 00 00 
    29a1:	83 c4 20             	add    $0x20,%esp
    29a4:	e9 cb fe ff ff       	jmp    2874 <test_limiting_pids+0x84>

    // Restore to 64
    ASSERT_TRUE(write_file(TEST_1_PID_MAX, "64"));
    29a9:	83 ec 08             	sub    $0x8,%esp
    29ac:	31 db                	xor    %ebx,%ebx
    29ae:	68 e3 cc 00 00       	push   $0xcce3
    29b3:	68 84 ca 00 00       	push   $0xca84
    29b8:	e8 23 d9 ff ff       	call   2e0 <write_file>
    29bd:	83 c4 10             	add    $0x10,%esp
    29c0:	85 c0                	test   %eax,%eax
    29c2:	74 21                	je     29e5 <test_limiting_pids+0x1f5>
    29c4:	eb 73                	jmp    2a39 <test_limiting_pids+0x249>
    29c6:	8d 76 00             	lea    0x0(%esi),%esi
    29c9:	8d bc 27 00 00 00 00 	lea    0x0(%edi,%eiz,1),%edi
    29d0:	83 ec 08             	sub    $0x8,%esp
    29d3:	83 c3 01             	add    $0x1,%ebx
    29d6:	68 18 c8 00 00       	push   $0xc818
    29db:	6a 01                	push   $0x1
    29dd:	e8 be 99 00 00       	call   c3a0 <printf>
    29e2:	83 c4 10             	add    $0x10,%esp
    29e5:	83 ec 0c             	sub    $0xc,%esp
    29e8:	68 54 eb 00 00       	push   $0xeb54
    29ed:	e8 6e 94 00 00       	call   be60 <strlen>
    29f2:	89 c6                	mov    %eax,%esi
    29f4:	c7 04 24 25 c8 00 00 	movl   $0xc825,(%esp)
    29fb:	e8 60 94 00 00       	call   be60 <strlen>
    2a00:	8d 44 06 02          	lea    0x2(%esi,%eax,1),%eax
    2a04:	83 c4 10             	add    $0x10,%esp
    2a07:	39 d8                	cmp    %ebx,%eax
    2a09:	77 c5                	ja     29d0 <test_limiting_pids+0x1e0>
    2a0b:	83 ec 0c             	sub    $0xc,%esp
    2a0e:	68 f7 01 00 00       	push   $0x1f7
    2a13:	68 30 c8 00 00       	push   $0xc830
    2a18:	ff 75 08             	pushl  0x8(%ebp)
    2a1b:	68 78 eb 00 00       	push   $0xeb78
    2a20:	6a 01                	push   $0x1
    2a22:	e8 79 99 00 00       	call   c3a0 <printf>
    2a27:	c7 05 40 42 01 00 01 	movl   $0x1,0x14240
    2a2e:	00 00 00 
    2a31:	83 c4 20             	add    $0x20,%esp
    2a34:	e9 3b fe ff ff       	jmp    2874 <test_limiting_pids+0x84>

    // Check changes
    ASSERT_FALSE(strcmp(read_file(TEST_1_PID_MAX, 0), "max - 64\n"));
    2a39:	83 ec 08             	sub    $0x8,%esp
    2a3c:	31 db                	xor    %ebx,%ebx
    2a3e:	6a 00                	push   $0x0
    2a40:	68 84 ca 00 00       	push   $0xca84
    2a45:	e8 d6 d7 ff ff       	call   220 <read_file>
    2a4a:	5a                   	pop    %edx
    2a4b:	59                   	pop    %ecx
    2a4c:	68 e6 cc 00 00       	push   $0xcce6
    2a51:	50                   	push   %eax
    2a52:	e8 29 93 00 00       	call   bd80 <strcmp>
    2a57:	83 c4 10             	add    $0x10,%esp
    2a5a:	85 c0                	test   %eax,%eax
    2a5c:	75 1f                	jne    2a7d <test_limiting_pids+0x28d>
    2a5e:	e9 11 fe ff ff       	jmp    2874 <test_limiting_pids+0x84>
    2a63:	90                   	nop
    2a64:	8d 74 26 00          	lea    0x0(%esi,%eiz,1),%esi
    2a68:	83 ec 08             	sub    $0x8,%esp
    2a6b:	83 c3 01             	add    $0x1,%ebx
    2a6e:	68 18 c8 00 00       	push   $0xc818
    2a73:	6a 01                	push   $0x1
    2a75:	e8 26 99 00 00       	call   c3a0 <printf>
    2a7a:	83 c4 10             	add    $0x10,%esp
    2a7d:	83 ec 0c             	sub    $0xc,%esp
    2a80:	68 c4 eb 00 00       	push   $0xebc4
    2a85:	e8 d6 93 00 00       	call   be60 <strlen>
    2a8a:	89 c6                	mov    %eax,%esi
    2a8c:	c7 04 24 25 c8 00 00 	movl   $0xc825,(%esp)
    2a93:	e8 c8 93 00 00       	call   be60 <strlen>
    2a98:	8d 44 06 02          	lea    0x2(%esi,%eax,1),%eax
    2a9c:	83 c4 10             	add    $0x10,%esp
    2a9f:	39 d8                	cmp    %ebx,%eax
    2aa1:	77 c5                	ja     2a68 <test_limiting_pids+0x278>
    2aa3:	83 ec 0c             	sub    $0xc,%esp
    2aa6:	68 fa 01 00 00       	push   $0x1fa
    2aab:	68 30 c8 00 00       	push   $0xc830
    2ab0:	ff 75 08             	pushl  0x8(%ebp)
    2ab3:	68 f8 eb 00 00       	push   $0xebf8
    2ab8:	6a 01                	push   $0x1
    2aba:	e8 e1 98 00 00       	call   c3a0 <printf>
    2abf:	c7 05 40 42 01 00 01 	movl   $0x1,0x14240
    2ac6:	00 00 00 
    2ac9:	83 c4 20             	add    $0x20,%esp
    2acc:	e9 a3 fd ff ff       	jmp    2874 <test_limiting_pids+0x84>
    2ad1:	eb 0d                	jmp    2ae0 <test_move_failure>
    2ad3:	90                   	nop
    2ad4:	90                   	nop
    2ad5:	90                   	nop
    2ad6:	90                   	nop
    2ad7:	90                   	nop
    2ad8:	90                   	nop
    2ad9:	90                   	nop
    2ada:	90                   	nop
    2adb:	90                   	nop
    2adc:	90                   	nop
    2add:	90                   	nop
    2ade:	90                   	nop
    2adf:	90                   	nop

00002ae0 <test_move_failure>:
}

TEST(test_move_failure)
{
    2ae0:	55                   	push   %ebp
    2ae1:	89 e5                	mov    %esp,%ebp
    2ae3:	57                   	push   %edi
    2ae4:	56                   	push   %esi
    2ae5:	53                   	push   %ebx
    2ae6:	31 db                	xor    %ebx,%ebx
    2ae8:	83 ec 18             	sub    $0x18,%esp
    2aeb:	8b 7d 08             	mov    0x8(%ebp),%edi
    // Enable pid controller
    ASSERT_TRUE(enable_controller(PID_CNT));
    2aee:	6a 01                	push   $0x1
    2af0:	e8 2b d9 ff ff       	call   420 <enable_controller>
    2af5:	83 c4 10             	add    $0x10,%esp
    2af8:	85 c0                	test   %eax,%eax
    2afa:	74 19                	je     2b15 <test_move_failure+0x35>
    2afc:	eb 72                	jmp    2b70 <test_move_failure+0x90>
    2afe:	66 90                	xchg   %ax,%ax
    2b00:	83 ec 08             	sub    $0x8,%esp
    2b03:	83 c3 01             	add    $0x1,%ebx
    2b06:	68 18 c8 00 00       	push   $0xc818
    2b0b:	6a 01                	push   $0x1
    2b0d:	e8 8e 98 00 00       	call   c3a0 <printf>
    2b12:	83 c4 10             	add    $0x10,%esp
    2b15:	83 ec 0c             	sub    $0xc,%esp
    2b18:	68 bb cc 00 00       	push   $0xccbb
    2b1d:	e8 3e 93 00 00       	call   be60 <strlen>
    2b22:	89 c6                	mov    %eax,%esi
    2b24:	c7 04 24 25 c8 00 00 	movl   $0xc825,(%esp)
    2b2b:	e8 30 93 00 00       	call   be60 <strlen>
    2b30:	8d 44 06 02          	lea    0x2(%esi,%eax,1),%eax
    2b34:	83 c4 10             	add    $0x10,%esp
    2b37:	39 d8                	cmp    %ebx,%eax
    2b39:	77 c5                	ja     2b00 <test_move_failure+0x20>
    2b3b:	83 ec 0c             	sub    $0xc,%esp
    2b3e:	68 00 02 00 00       	push   $0x200
    2b43:	68 30 c8 00 00       	push   $0xc830
    2b48:	57                   	push   %edi
    2b49:	68 10 ea 00 00       	push   $0xea10
    2b4e:	6a 01                	push   $0x1
    2b50:	e8 4b 98 00 00       	call   c3a0 <printf>
    2b55:	c7 05 40 42 01 00 01 	movl   $0x1,0x14240
    2b5c:	00 00 00 
    2b5f:	83 c4 20             	add    $0x20,%esp
    // Check that the process is still in root cgroup.
    ASSERT_TRUE(is_pid_in_group(ROOT_CGROUP_PROCS, getpid()));

    // Disable PID controller
    ASSERT_TRUE(disable_controller(PID_CNT));
}
    2b62:	8d 65 f4             	lea    -0xc(%ebp),%esp
    2b65:	5b                   	pop    %ebx
    2b66:	5e                   	pop    %esi
    2b67:	5f                   	pop    %edi
    2b68:	5d                   	pop    %ebp
    2b69:	c3                   	ret    
    2b6a:	8d b6 00 00 00 00    	lea    0x0(%esi),%esi
{
    // Enable pid controller
    ASSERT_TRUE(enable_controller(PID_CNT));

    // Update pid limit
    ASSERT_TRUE(write_file(TEST_1_PID_MAX, "0"));
    2b70:	83 ec 08             	sub    $0x8,%esp
    2b73:	31 db                	xor    %ebx,%ebx
    2b75:	68 82 cc 00 00       	push   $0xcc82
    2b7a:	68 84 ca 00 00       	push   $0xca84
    2b7f:	e8 5c d7 ff ff       	call   2e0 <write_file>
    2b84:	83 c4 10             	add    $0x10,%esp
    2b87:	85 c0                	test   %eax,%eax
    2b89:	74 1a                	je     2ba5 <test_move_failure+0xc5>
    2b8b:	eb 73                	jmp    2c00 <test_move_failure+0x120>
    2b8d:	8d 76 00             	lea    0x0(%esi),%esi
    2b90:	83 ec 08             	sub    $0x8,%esp
    2b93:	83 c3 01             	add    $0x1,%ebx
    2b96:	68 18 c8 00 00       	push   $0xc818
    2b9b:	6a 01                	push   $0x1
    2b9d:	e8 fe 97 00 00       	call   c3a0 <printf>
    2ba2:	83 c4 10             	add    $0x10,%esp
    2ba5:	83 ec 0c             	sub    $0xc,%esp
    2ba8:	68 54 ec 00 00       	push   $0xec54
    2bad:	e8 ae 92 00 00       	call   be60 <strlen>
    2bb2:	89 c6                	mov    %eax,%esi
    2bb4:	c7 04 24 25 c8 00 00 	movl   $0xc825,(%esp)
    2bbb:	e8 a0 92 00 00       	call   be60 <strlen>
    2bc0:	8d 44 06 02          	lea    0x2(%esi,%eax,1),%eax
    2bc4:	83 c4 10             	add    $0x10,%esp
    2bc7:	39 d8                	cmp    %ebx,%eax
    2bc9:	77 c5                	ja     2b90 <test_move_failure+0xb0>
    2bcb:	83 ec 0c             	sub    $0xc,%esp
    2bce:	68 03 02 00 00       	push   $0x203
    2bd3:	68 30 c8 00 00       	push   $0xc830
    2bd8:	57                   	push   %edi
    2bd9:	68 74 ec 00 00       	push   $0xec74
    2bde:	6a 01                	push   $0x1
    2be0:	e8 bb 97 00 00       	call   c3a0 <printf>
    2be5:	c7 05 40 42 01 00 01 	movl   $0x1,0x14240
    2bec:	00 00 00 
    2bef:	83 c4 20             	add    $0x20,%esp
    // Check that the process is still in root cgroup.
    ASSERT_TRUE(is_pid_in_group(ROOT_CGROUP_PROCS, getpid()));

    // Disable PID controller
    ASSERT_TRUE(disable_controller(PID_CNT));
}
    2bf2:	8d 65 f4             	lea    -0xc(%ebp),%esp
    2bf5:	5b                   	pop    %ebx
    2bf6:	5e                   	pop    %esi
    2bf7:	5f                   	pop    %edi
    2bf8:	5d                   	pop    %ebp
    2bf9:	c3                   	ret    
    2bfa:	8d b6 00 00 00 00    	lea    0x0(%esi),%esi
    // Update pid limit
    ASSERT_TRUE(write_file(TEST_1_PID_MAX, "0"));

    // Attempt to move the current process to "/cgroup/test1" cgroup.
    // Notice write here should fail, and so we suppress error outputs from this point.
    ASSERT_FALSE(move_proc(TEST_1_CGROUP_PROCS, getpid()));
    2c00:	e8 63 96 00 00       	call   c268 <getpid>
    2c05:	83 ec 08             	sub    $0x8,%esp
    2c08:	31 db                	xor    %ebx,%ebx
    2c0a:	50                   	push   %eax
    2c0b:	68 ed c9 00 00       	push   $0xc9ed
    2c10:	e8 0b da ff ff       	call   620 <move_proc>
    2c15:	83 c4 10             	add    $0x10,%esp
    2c18:	85 c0                	test   %eax,%eax
    2c1a:	75 19                	jne    2c35 <test_move_failure+0x155>
    2c1c:	eb 69                	jmp    2c87 <test_move_failure+0x1a7>
    2c1e:	66 90                	xchg   %ax,%ax
    2c20:	83 ec 08             	sub    $0x8,%esp
    2c23:	83 c3 01             	add    $0x1,%ebx
    2c26:	68 18 c8 00 00       	push   $0xc818
    2c2b:	6a 01                	push   $0x1
    2c2d:	e8 6e 97 00 00       	call   c3a0 <printf>
    2c32:	83 c4 10             	add    $0x10,%esp
    2c35:	83 ec 0c             	sub    $0xc,%esp
    2c38:	68 c0 ec 00 00       	push   $0xecc0
    2c3d:	e8 1e 92 00 00       	call   be60 <strlen>
    2c42:	89 c6                	mov    %eax,%esi
    2c44:	c7 04 24 25 c8 00 00 	movl   $0xc825,(%esp)
    2c4b:	e8 10 92 00 00       	call   be60 <strlen>
    2c50:	8d 44 06 02          	lea    0x2(%esi,%eax,1),%eax
    2c54:	83 c4 10             	add    $0x10,%esp
    2c57:	39 d8                	cmp    %ebx,%eax
    2c59:	77 c5                	ja     2c20 <test_move_failure+0x140>
    2c5b:	83 ec 0c             	sub    $0xc,%esp
    2c5e:	68 07 02 00 00       	push   $0x207
    2c63:	68 30 c8 00 00       	push   $0xc830
    2c68:	57                   	push   %edi
    2c69:	68 ec ec 00 00       	push   $0xecec
    2c6e:	6a 01                	push   $0x1
    2c70:	e8 2b 97 00 00       	call   c3a0 <printf>
    2c75:	c7 05 40 42 01 00 01 	movl   $0x1,0x14240
    2c7c:	00 00 00 
    2c7f:	83 c4 20             	add    $0x20,%esp
    2c82:	e9 db fe ff ff       	jmp    2b62 <test_move_failure+0x82>

    // Check that the process we moved is not in "/cgroup/test1" cgroup.
    // Notice this should fail.
    ASSERT_FALSE(is_pid_in_group(TEST_1_CGROUP_PROCS, getpid()));
    2c87:	e8 dc 95 00 00       	call   c268 <getpid>
    2c8c:	83 ec 08             	sub    $0x8,%esp
    2c8f:	31 db                	xor    %ebx,%ebx
    2c91:	50                   	push   %eax
    2c92:	68 ed c9 00 00       	push   $0xc9ed
    2c97:	e8 b4 d9 ff ff       	call   650 <is_pid_in_group>
    2c9c:	83 c4 10             	add    $0x10,%esp
    2c9f:	85 c0                	test   %eax,%eax
    2ca1:	75 1a                	jne    2cbd <test_move_failure+0x1dd>
    2ca3:	eb 6a                	jmp    2d0f <test_move_failure+0x22f>
    2ca5:	8d 76 00             	lea    0x0(%esi),%esi
    2ca8:	83 ec 08             	sub    $0x8,%esp
    2cab:	83 c3 01             	add    $0x1,%ebx
    2cae:	68 18 c8 00 00       	push   $0xc818
    2cb3:	6a 01                	push   $0x1
    2cb5:	e8 e6 96 00 00       	call   c3a0 <printf>
    2cba:	83 c4 10             	add    $0x10,%esp
    2cbd:	83 ec 0c             	sub    $0xc,%esp
    2cc0:	68 40 ed 00 00       	push   $0xed40
    2cc5:	e8 96 91 00 00       	call   be60 <strlen>
    2cca:	89 c6                	mov    %eax,%esi
    2ccc:	c7 04 24 25 c8 00 00 	movl   $0xc825,(%esp)
    2cd3:	e8 88 91 00 00       	call   be60 <strlen>
    2cd8:	8d 44 06 02          	lea    0x2(%esi,%eax,1),%eax
    2cdc:	83 c4 10             	add    $0x10,%esp
    2cdf:	39 d8                	cmp    %ebx,%eax
    2ce1:	77 c5                	ja     2ca8 <test_move_failure+0x1c8>
    2ce3:	83 ec 0c             	sub    $0xc,%esp
    2ce6:	68 0b 02 00 00       	push   $0x20b
    2ceb:	68 30 c8 00 00       	push   $0xc830
    2cf0:	57                   	push   %edi
    2cf1:	68 70 ed 00 00       	push   $0xed70
    2cf6:	6a 01                	push   $0x1
    2cf8:	e8 a3 96 00 00       	call   c3a0 <printf>
    2cfd:	c7 05 40 42 01 00 01 	movl   $0x1,0x14240
    2d04:	00 00 00 
    2d07:	83 c4 20             	add    $0x20,%esp
    2d0a:	e9 53 fe ff ff       	jmp    2b62 <test_move_failure+0x82>

    // Check that the process is still in root cgroup.
    ASSERT_TRUE(is_pid_in_group(ROOT_CGROUP_PROCS, getpid()));
    2d0f:	e8 54 95 00 00       	call   c268 <getpid>
    2d14:	83 ec 08             	sub    $0x8,%esp
    2d17:	31 db                	xor    %ebx,%ebx
    2d19:	50                   	push   %eax
    2d1a:	68 f0 cc 00 00       	push   $0xccf0
    2d1f:	e8 2c d9 ff ff       	call   650 <is_pid_in_group>
    2d24:	83 c4 10             	add    $0x10,%esp
    2d27:	85 c0                	test   %eax,%eax
    2d29:	74 1a                	je     2d45 <test_move_failure+0x265>
    2d2b:	eb 6a                	jmp    2d97 <test_move_failure+0x2b7>
    2d2d:	8d 76 00             	lea    0x0(%esi),%esi
    2d30:	83 ec 08             	sub    $0x8,%esp
    2d33:	83 c3 01             	add    $0x1,%ebx
    2d36:	68 18 c8 00 00       	push   $0xc818
    2d3b:	6a 01                	push   $0x1
    2d3d:	e8 5e 96 00 00       	call   c3a0 <printf>
    2d42:	83 c4 10             	add    $0x10,%esp
    2d45:	83 ec 0c             	sub    $0xc,%esp
    2d48:	68 c8 ed 00 00       	push   $0xedc8
    2d4d:	e8 0e 91 00 00       	call   be60 <strlen>
    2d52:	89 c6                	mov    %eax,%esi
    2d54:	c7 04 24 25 c8 00 00 	movl   $0xc825,(%esp)
    2d5b:	e8 00 91 00 00       	call   be60 <strlen>
    2d60:	8d 44 06 02          	lea    0x2(%esi,%eax,1),%eax
    2d64:	83 c4 10             	add    $0x10,%esp
    2d67:	39 d8                	cmp    %ebx,%eax
    2d69:	77 c5                	ja     2d30 <test_move_failure+0x250>
    2d6b:	83 ec 0c             	sub    $0xc,%esp
    2d6e:	68 0e 02 00 00       	push   $0x20e
    2d73:	68 30 c8 00 00       	push   $0xc830
    2d78:	57                   	push   %edi
    2d79:	68 f8 ed 00 00       	push   $0xedf8
    2d7e:	6a 01                	push   $0x1
    2d80:	e8 1b 96 00 00       	call   c3a0 <printf>
    2d85:	c7 05 40 42 01 00 01 	movl   $0x1,0x14240
    2d8c:	00 00 00 
    2d8f:	83 c4 20             	add    $0x20,%esp
    2d92:	e9 cb fd ff ff       	jmp    2b62 <test_move_failure+0x82>

    // Disable PID controller
    ASSERT_TRUE(disable_controller(PID_CNT));
    2d97:	83 ec 0c             	sub    $0xc,%esp
    2d9a:	31 db                	xor    %ebx,%ebx
    2d9c:	6a 01                	push   $0x1
    2d9e:	e8 cd d6 ff ff       	call   470 <disable_controller>
    2da3:	83 c4 10             	add    $0x10,%esp
    2da6:	85 c0                	test   %eax,%eax
    2da8:	74 1b                	je     2dc5 <test_move_failure+0x2e5>
    2daa:	e9 b3 fd ff ff       	jmp    2b62 <test_move_failure+0x82>
    2daf:	90                   	nop
    2db0:	83 ec 08             	sub    $0x8,%esp
    2db3:	83 c3 01             	add    $0x1,%ebx
    2db6:	68 18 c8 00 00       	push   $0xc818
    2dbb:	6a 01                	push   $0x1
    2dbd:	e8 de 95 00 00       	call   c3a0 <printf>
    2dc2:	83 c4 10             	add    $0x10,%esp
    2dc5:	83 ec 0c             	sub    $0xc,%esp
    2dc8:	68 05 cd 00 00       	push   $0xcd05
    2dcd:	e8 8e 90 00 00       	call   be60 <strlen>
    2dd2:	89 c6                	mov    %eax,%esi
    2dd4:	c7 04 24 25 c8 00 00 	movl   $0xc825,(%esp)
    2ddb:	e8 80 90 00 00       	call   be60 <strlen>
    2de0:	8d 44 06 02          	lea    0x2(%esi,%eax,1),%eax
    2de4:	83 c4 10             	add    $0x10,%esp
    2de7:	39 d8                	cmp    %ebx,%eax
    2de9:	77 c5                	ja     2db0 <test_move_failure+0x2d0>
    2deb:	83 ec 0c             	sub    $0xc,%esp
    2dee:	68 11 02 00 00       	push   $0x211
    2df3:	68 30 c8 00 00       	push   $0xc830
    2df8:	57                   	push   %edi
    2df9:	68 50 ee 00 00       	push   $0xee50
    2dfe:	6a 01                	push   $0x1
    2e00:	e8 9b 95 00 00       	call   c3a0 <printf>
    2e05:	c7 05 40 42 01 00 01 	movl   $0x1,0x14240
    2e0c:	00 00 00 
    2e0f:	83 c4 20             	add    $0x20,%esp
    2e12:	e9 4b fd ff ff       	jmp    2b62 <test_move_failure+0x82>
    2e17:	89 f6                	mov    %esi,%esi
    2e19:	8d bc 27 00 00 00 00 	lea    0x0(%edi,%eiz,1),%edi

00002e20 <test_fork_failure>:
}

TEST(test_fork_failure)
{
    2e20:	55                   	push   %ebp
    2e21:	89 e5                	mov    %esp,%ebp
    2e23:	57                   	push   %edi
    2e24:	56                   	push   %esi
    2e25:	53                   	push   %ebx
    2e26:	31 db                	xor    %ebx,%ebx
    2e28:	83 ec 18             	sub    $0x18,%esp
    2e2b:	8b 75 08             	mov    0x8(%ebp),%esi
    // Enable pid controller
    ASSERT_TRUE(enable_controller(PID_CNT));
    2e2e:	6a 01                	push   $0x1
    2e30:	e8 eb d5 ff ff       	call   420 <enable_controller>
    2e35:	83 c4 10             	add    $0x10,%esp
    2e38:	85 c0                	test   %eax,%eax
    2e3a:	74 19                	je     2e55 <test_fork_failure+0x35>
    2e3c:	eb 72                	jmp    2eb0 <test_fork_failure+0x90>
    2e3e:	66 90                	xchg   %ax,%ax
    2e40:	83 ec 08             	sub    $0x8,%esp
    2e43:	83 c3 01             	add    $0x1,%ebx
    2e46:	68 18 c8 00 00       	push   $0xc818
    2e4b:	6a 01                	push   $0x1
    2e4d:	e8 4e 95 00 00       	call   c3a0 <printf>
    2e52:	83 c4 10             	add    $0x10,%esp
    2e55:	83 ec 0c             	sub    $0xc,%esp
    2e58:	68 bb cc 00 00       	push   $0xccbb
    2e5d:	e8 fe 8f 00 00       	call   be60 <strlen>
    2e62:	89 c7                	mov    %eax,%edi
    2e64:	c7 04 24 25 c8 00 00 	movl   $0xc825,(%esp)
    2e6b:	e8 f0 8f 00 00       	call   be60 <strlen>
    2e70:	8d 44 07 02          	lea    0x2(%edi,%eax,1),%eax
    2e74:	83 c4 10             	add    $0x10,%esp
    2e77:	39 d8                	cmp    %ebx,%eax
    2e79:	77 c5                	ja     2e40 <test_fork_failure+0x20>
    2e7b:	83 ec 0c             	sub    $0xc,%esp
    2e7e:	68 17 02 00 00       	push   $0x217
    2e83:	68 30 c8 00 00       	push   $0xc830
    2e88:	56                   	push   %esi
    2e89:	68 10 ea 00 00       	push   $0xea10
    2e8e:	6a 01                	push   $0x1
    2e90:	e8 0b 95 00 00       	call   c3a0 <printf>
    2e95:	c7 05 40 42 01 00 01 	movl   $0x1,0x14240
    2e9c:	00 00 00 
    2e9f:	83 c4 20             	add    $0x20,%esp
    // Check that the process we returned is really in root cgroup.
    ASSERT_TRUE(is_pid_in_group(ROOT_CGROUP_PROCS, getpid()));

    // Disable PID controller
    ASSERT_TRUE(disable_controller(PID_CNT));
}
    2ea2:	8d 65 f4             	lea    -0xc(%ebp),%esp
    2ea5:	5b                   	pop    %ebx
    2ea6:	5e                   	pop    %esi
    2ea7:	5f                   	pop    %edi
    2ea8:	5d                   	pop    %ebp
    2ea9:	c3                   	ret    
    2eaa:	8d b6 00 00 00 00    	lea    0x0(%esi),%esi
{
    // Enable pid controller
    ASSERT_TRUE(enable_controller(PID_CNT));

    // Update pid limit
    ASSERT_TRUE(write_file(TEST_1_PID_MAX, "1"));
    2eb0:	83 ec 08             	sub    $0x8,%esp
    2eb3:	31 db                	xor    %ebx,%ebx
    2eb5:	68 1e cf 00 00       	push   $0xcf1e
    2eba:	68 84 ca 00 00       	push   $0xca84
    2ebf:	e8 1c d4 ff ff       	call   2e0 <write_file>
    2ec4:	83 c4 10             	add    $0x10,%esp
    2ec7:	85 c0                	test   %eax,%eax
    2ec9:	74 1a                	je     2ee5 <test_fork_failure+0xc5>
    2ecb:	eb 73                	jmp    2f40 <test_fork_failure+0x120>
    2ecd:	8d 76 00             	lea    0x0(%esi),%esi
    2ed0:	83 ec 08             	sub    $0x8,%esp
    2ed3:	83 c3 01             	add    $0x1,%ebx
    2ed6:	68 18 c8 00 00       	push   $0xc818
    2edb:	6a 01                	push   $0x1
    2edd:	e8 be 94 00 00       	call   c3a0 <printf>
    2ee2:	83 c4 10             	add    $0x10,%esp
    2ee5:	83 ec 0c             	sub    $0xc,%esp
    2ee8:	68 98 ee 00 00       	push   $0xee98
    2eed:	e8 6e 8f 00 00       	call   be60 <strlen>
    2ef2:	89 c7                	mov    %eax,%edi
    2ef4:	c7 04 24 25 c8 00 00 	movl   $0xc825,(%esp)
    2efb:	e8 60 8f 00 00       	call   be60 <strlen>
    2f00:	8d 44 07 02          	lea    0x2(%edi,%eax,1),%eax
    2f04:	83 c4 10             	add    $0x10,%esp
    2f07:	39 d8                	cmp    %ebx,%eax
    2f09:	77 c5                	ja     2ed0 <test_fork_failure+0xb0>
    2f0b:	83 ec 0c             	sub    $0xc,%esp
    2f0e:	68 1a 02 00 00       	push   $0x21a
    2f13:	68 30 c8 00 00       	push   $0xc830
    2f18:	56                   	push   %esi
    2f19:	68 b8 ee 00 00       	push   $0xeeb8
    2f1e:	6a 01                	push   $0x1
    2f20:	e8 7b 94 00 00       	call   c3a0 <printf>
    2f25:	c7 05 40 42 01 00 01 	movl   $0x1,0x14240
    2f2c:	00 00 00 
    2f2f:	83 c4 20             	add    $0x20,%esp
    // Check that the process we returned is really in root cgroup.
    ASSERT_TRUE(is_pid_in_group(ROOT_CGROUP_PROCS, getpid()));

    // Disable PID controller
    ASSERT_TRUE(disable_controller(PID_CNT));
}
    2f32:	8d 65 f4             	lea    -0xc(%ebp),%esp
    2f35:	5b                   	pop    %ebx
    2f36:	5e                   	pop    %esi
    2f37:	5f                   	pop    %edi
    2f38:	5d                   	pop    %ebp
    2f39:	c3                   	ret    
    2f3a:	8d b6 00 00 00 00    	lea    0x0(%esi),%esi

    // Update pid limit
    ASSERT_TRUE(write_file(TEST_1_PID_MAX, "1"));

    // Move the current process to "/cgroup/test1" cgroup.
    ASSERT_TRUE(move_proc(TEST_1_CGROUP_PROCS, getpid()));
    2f40:	e8 23 93 00 00       	call   c268 <getpid>
    2f45:	83 ec 08             	sub    $0x8,%esp
    2f48:	31 db                	xor    %ebx,%ebx
    2f4a:	50                   	push   %eax
    2f4b:	68 ed c9 00 00       	push   $0xc9ed
    2f50:	e8 cb d6 ff ff       	call   620 <move_proc>
    2f55:	83 c4 10             	add    $0x10,%esp
    2f58:	85 c0                	test   %eax,%eax
    2f5a:	74 19                	je     2f75 <test_fork_failure+0x155>
    2f5c:	eb 69                	jmp    2fc7 <test_fork_failure+0x1a7>
    2f5e:	66 90                	xchg   %ax,%ax
    2f60:	83 ec 08             	sub    $0x8,%esp
    2f63:	83 c3 01             	add    $0x1,%ebx
    2f66:	68 18 c8 00 00       	push   $0xc818
    2f6b:	6a 01                	push   $0x1
    2f6d:	e8 2e 94 00 00       	call   c3a0 <printf>
    2f72:	83 c4 10             	add    $0x10,%esp
    2f75:	83 ec 0c             	sub    $0xc,%esp
    2f78:	68 c0 ec 00 00       	push   $0xecc0
    2f7d:	e8 de 8e 00 00       	call   be60 <strlen>
    2f82:	89 c7                	mov    %eax,%edi
    2f84:	c7 04 24 25 c8 00 00 	movl   $0xc825,(%esp)
    2f8b:	e8 d0 8e 00 00       	call   be60 <strlen>
    2f90:	8d 44 07 02          	lea    0x2(%edi,%eax,1),%eax
    2f94:	83 c4 10             	add    $0x10,%esp
    2f97:	39 d8                	cmp    %ebx,%eax
    2f99:	77 c5                	ja     2f60 <test_fork_failure+0x140>
    2f9b:	83 ec 0c             	sub    $0xc,%esp
    2f9e:	68 1d 02 00 00       	push   $0x21d
    2fa3:	68 30 c8 00 00       	push   $0xc830
    2fa8:	56                   	push   %esi
    2fa9:	68 04 ef 00 00       	push   $0xef04
    2fae:	6a 01                	push   $0x1
    2fb0:	e8 eb 93 00 00       	call   c3a0 <printf>
    2fb5:	c7 05 40 42 01 00 01 	movl   $0x1,0x14240
    2fbc:	00 00 00 
    2fbf:	83 c4 20             	add    $0x20,%esp
    2fc2:	e9 db fe ff ff       	jmp    2ea2 <test_fork_failure+0x82>

    // Check that the process we moved is really in "/cgroup/test1" cgroup.
    ASSERT_TRUE(is_pid_in_group(TEST_1_CGROUP_PROCS, getpid()));
    2fc7:	e8 9c 92 00 00       	call   c268 <getpid>
    2fcc:	83 ec 08             	sub    $0x8,%esp
    2fcf:	31 db                	xor    %ebx,%ebx
    2fd1:	50                   	push   %eax
    2fd2:	68 ed c9 00 00       	push   $0xc9ed
    2fd7:	e8 74 d6 ff ff       	call   650 <is_pid_in_group>
    2fdc:	83 c4 10             	add    $0x10,%esp
    2fdf:	85 c0                	test   %eax,%eax
    2fe1:	74 1a                	je     2ffd <test_fork_failure+0x1dd>
    2fe3:	eb 6a                	jmp    304f <test_fork_failure+0x22f>
    2fe5:	8d 76 00             	lea    0x0(%esi),%esi
    2fe8:	83 ec 08             	sub    $0x8,%esp
    2feb:	83 c3 01             	add    $0x1,%ebx
    2fee:	68 18 c8 00 00       	push   $0xc818
    2ff3:	6a 01                	push   $0x1
    2ff5:	e8 a6 93 00 00       	call   c3a0 <printf>
    2ffa:	83 c4 10             	add    $0x10,%esp
    2ffd:	83 ec 0c             	sub    $0xc,%esp
    3000:	68 40 ed 00 00       	push   $0xed40
    3005:	e8 56 8e 00 00       	call   be60 <strlen>
    300a:	89 c7                	mov    %eax,%edi
    300c:	c7 04 24 25 c8 00 00 	movl   $0xc825,(%esp)
    3013:	e8 48 8e 00 00       	call   be60 <strlen>
    3018:	8d 44 07 02          	lea    0x2(%edi,%eax,1),%eax
    301c:	83 c4 10             	add    $0x10,%esp
    301f:	39 d8                	cmp    %ebx,%eax
    3021:	77 c5                	ja     2fe8 <test_fork_failure+0x1c8>
    3023:	83 ec 0c             	sub    $0xc,%esp
    3026:	68 20 02 00 00       	push   $0x220
    302b:	68 30 c8 00 00       	push   $0xc830
    3030:	56                   	push   %esi
    3031:	68 58 ef 00 00       	push   $0xef58
    3036:	6a 01                	push   $0x1
    3038:	e8 63 93 00 00       	call   c3a0 <printf>
    303d:	c7 05 40 42 01 00 01 	movl   $0x1,0x14240
    3044:	00 00 00 
    3047:	83 c4 20             	add    $0x20,%esp
    304a:	e9 53 fe ff ff       	jmp    2ea2 <test_fork_failure+0x82>

    // Attempt to fork, notice this operation should fail and return -1.
    ASSERT_UINT_EQ(fork(), -1);
    304f:	e8 8c 91 00 00       	call   c1e0 <fork>
    3054:	83 f8 ff             	cmp    $0xffffffff,%eax
    3057:	74 2d                	je     3086 <test_fork_failure+0x266>
    3059:	e8 82 91 00 00       	call   c1e0 <fork>
    305e:	83 ec 0c             	sub    $0xc,%esp
    3061:	68 23 02 00 00       	push   $0x223
    3066:	68 30 c8 00 00       	push   $0xc830
    306b:	6a ff                	push   $0xffffffff
    306d:	50                   	push   %eax
    306e:	56                   	push   %esi
    306f:	e8 0c d0 ff ff       	call   80 <print_error>
    3074:	c7 05 40 42 01 00 01 	movl   $0x1,0x14240
    307b:	00 00 00 
    307e:	83 c4 20             	add    $0x20,%esp
    3081:	e9 1c fe ff ff       	jmp    2ea2 <test_fork_failure+0x82>

    // Return the process to root cgroup.
    ASSERT_TRUE(move_proc(ROOT_CGROUP_PROCS, getpid()));
    3086:	e8 dd 91 00 00       	call   c268 <getpid>
    308b:	83 ec 08             	sub    $0x8,%esp
    308e:	31 db                	xor    %ebx,%ebx
    3090:	50                   	push   %eax
    3091:	68 f0 cc 00 00       	push   $0xccf0
    3096:	e8 85 d5 ff ff       	call   620 <move_proc>
    309b:	83 c4 10             	add    $0x10,%esp
    309e:	85 c0                	test   %eax,%eax
    30a0:	74 1b                	je     30bd <test_fork_failure+0x29d>
    30a2:	eb 6b                	jmp    310f <test_fork_failure+0x2ef>
    30a4:	8d 74 26 00          	lea    0x0(%esi,%eiz,1),%esi
    30a8:	83 ec 08             	sub    $0x8,%esp
    30ab:	83 c3 01             	add    $0x1,%ebx
    30ae:	68 18 c8 00 00       	push   $0xc818
    30b3:	6a 01                	push   $0x1
    30b5:	e8 e6 92 00 00       	call   c3a0 <printf>
    30ba:	83 c4 10             	add    $0x10,%esp
    30bd:	83 ec 0c             	sub    $0xc,%esp
    30c0:	68 b0 ef 00 00       	push   $0xefb0
    30c5:	e8 96 8d 00 00       	call   be60 <strlen>
    30ca:	89 c7                	mov    %eax,%edi
    30cc:	c7 04 24 25 c8 00 00 	movl   $0xc825,(%esp)
    30d3:	e8 88 8d 00 00       	call   be60 <strlen>
    30d8:	8d 44 07 02          	lea    0x2(%edi,%eax,1),%eax
    30dc:	83 c4 10             	add    $0x10,%esp
    30df:	39 d8                	cmp    %ebx,%eax
    30e1:	77 c5                	ja     30a8 <test_fork_failure+0x288>
    30e3:	83 ec 0c             	sub    $0xc,%esp
    30e6:	68 26 02 00 00       	push   $0x226
    30eb:	68 30 c8 00 00       	push   $0xc830
    30f0:	56                   	push   %esi
    30f1:	68 d8 ef 00 00       	push   $0xefd8
    30f6:	6a 01                	push   $0x1
    30f8:	e8 a3 92 00 00       	call   c3a0 <printf>
    30fd:	c7 05 40 42 01 00 01 	movl   $0x1,0x14240
    3104:	00 00 00 
    3107:	83 c4 20             	add    $0x20,%esp
    310a:	e9 93 fd ff ff       	jmp    2ea2 <test_fork_failure+0x82>

    // Check that the process we returned is really in root cgroup.
    ASSERT_TRUE(is_pid_in_group(ROOT_CGROUP_PROCS, getpid()));
    310f:	e8 54 91 00 00       	call   c268 <getpid>
    3114:	83 ec 08             	sub    $0x8,%esp
    3117:	31 db                	xor    %ebx,%ebx
    3119:	50                   	push   %eax
    311a:	68 f0 cc 00 00       	push   $0xccf0
    311f:	e8 2c d5 ff ff       	call   650 <is_pid_in_group>
    3124:	83 c4 10             	add    $0x10,%esp
    3127:	85 c0                	test   %eax,%eax
    3129:	74 1a                	je     3145 <test_fork_failure+0x325>
    312b:	eb 6a                	jmp    3197 <test_fork_failure+0x377>
    312d:	8d 76 00             	lea    0x0(%esi),%esi
    3130:	83 ec 08             	sub    $0x8,%esp
    3133:	83 c3 01             	add    $0x1,%ebx
    3136:	68 18 c8 00 00       	push   $0xc818
    313b:	6a 01                	push   $0x1
    313d:	e8 5e 92 00 00       	call   c3a0 <printf>
    3142:	83 c4 10             	add    $0x10,%esp
    3145:	83 ec 0c             	sub    $0xc,%esp
    3148:	68 c8 ed 00 00       	push   $0xedc8
    314d:	e8 0e 8d 00 00       	call   be60 <strlen>
    3152:	89 c7                	mov    %eax,%edi
    3154:	c7 04 24 25 c8 00 00 	movl   $0xc825,(%esp)
    315b:	e8 00 8d 00 00       	call   be60 <strlen>
    3160:	8d 44 07 02          	lea    0x2(%edi,%eax,1),%eax
    3164:	83 c4 10             	add    $0x10,%esp
    3167:	39 d8                	cmp    %ebx,%eax
    3169:	77 c5                	ja     3130 <test_fork_failure+0x310>
    316b:	83 ec 0c             	sub    $0xc,%esp
    316e:	68 29 02 00 00       	push   $0x229
    3173:	68 30 c8 00 00       	push   $0xc830
    3178:	56                   	push   %esi
    3179:	68 f8 ed 00 00       	push   $0xedf8
    317e:	6a 01                	push   $0x1
    3180:	e8 1b 92 00 00       	call   c3a0 <printf>
    3185:	c7 05 40 42 01 00 01 	movl   $0x1,0x14240
    318c:	00 00 00 
    318f:	83 c4 20             	add    $0x20,%esp
    3192:	e9 0b fd ff ff       	jmp    2ea2 <test_fork_failure+0x82>

    // Disable PID controller
    ASSERT_TRUE(disable_controller(PID_CNT));
    3197:	83 ec 0c             	sub    $0xc,%esp
    319a:	31 db                	xor    %ebx,%ebx
    319c:	6a 01                	push   $0x1
    319e:	e8 cd d2 ff ff       	call   470 <disable_controller>
    31a3:	83 c4 10             	add    $0x10,%esp
    31a6:	85 c0                	test   %eax,%eax
    31a8:	74 1b                	je     31c5 <test_fork_failure+0x3a5>
    31aa:	e9 f3 fc ff ff       	jmp    2ea2 <test_fork_failure+0x82>
    31af:	90                   	nop
    31b0:	83 ec 08             	sub    $0x8,%esp
    31b3:	83 c3 01             	add    $0x1,%ebx
    31b6:	68 18 c8 00 00       	push   $0xc818
    31bb:	6a 01                	push   $0x1
    31bd:	e8 de 91 00 00       	call   c3a0 <printf>
    31c2:	83 c4 10             	add    $0x10,%esp
    31c5:	83 ec 0c             	sub    $0xc,%esp
    31c8:	68 05 cd 00 00       	push   $0xcd05
    31cd:	e8 8e 8c 00 00       	call   be60 <strlen>
    31d2:	89 c7                	mov    %eax,%edi
    31d4:	c7 04 24 25 c8 00 00 	movl   $0xc825,(%esp)
    31db:	e8 80 8c 00 00       	call   be60 <strlen>
    31e0:	8d 44 07 02          	lea    0x2(%edi,%eax,1),%eax
    31e4:	83 c4 10             	add    $0x10,%esp
    31e7:	39 d8                	cmp    %ebx,%eax
    31e9:	77 c5                	ja     31b0 <test_fork_failure+0x390>
    31eb:	83 ec 0c             	sub    $0xc,%esp
    31ee:	68 2c 02 00 00       	push   $0x22c
    31f3:	68 30 c8 00 00       	push   $0xc830
    31f8:	56                   	push   %esi
    31f9:	68 50 ee 00 00       	push   $0xee50
    31fe:	6a 01                	push   $0x1
    3200:	e8 9b 91 00 00       	call   c3a0 <printf>
    3205:	c7 05 40 42 01 00 01 	movl   $0x1,0x14240
    320c:	00 00 00 
    320f:	83 c4 20             	add    $0x20,%esp
    3212:	e9 8b fc ff ff       	jmp    2ea2 <test_fork_failure+0x82>
    3217:	89 f6                	mov    %esi,%esi
    3219:	8d bc 27 00 00 00 00 	lea    0x0(%edi,%eiz,1),%edi

00003220 <test_pid_current>:
}

TEST(test_pid_current)
{
    3220:	55                   	push   %ebp
    3221:	89 e5                	mov    %esp,%ebp
    3223:	56                   	push   %esi
    3224:	53                   	push   %ebx
    3225:	31 db                	xor    %ebx,%ebx
    // Move the current process to "/cgroup/test1" cgroup.
    ASSERT_TRUE(move_proc(TEST_1_CGROUP_PROCS, getpid()));
    3227:	e8 3c 90 00 00       	call   c268 <getpid>
    322c:	83 ec 08             	sub    $0x8,%esp
    322f:	50                   	push   %eax
    3230:	68 ed c9 00 00       	push   $0xc9ed
    3235:	e8 e6 d3 ff ff       	call   620 <move_proc>
    323a:	83 c4 10             	add    $0x10,%esp
    323d:	85 c0                	test   %eax,%eax
    323f:	74 1c                	je     325d <test_pid_current+0x3d>
    3241:	eb 75                	jmp    32b8 <test_pid_current+0x98>
    3243:	90                   	nop
    3244:	8d 74 26 00          	lea    0x0(%esi,%eiz,1),%esi
    3248:	83 ec 08             	sub    $0x8,%esp
    324b:	83 c3 01             	add    $0x1,%ebx
    324e:	68 18 c8 00 00       	push   $0xc818
    3253:	6a 01                	push   $0x1
    3255:	e8 46 91 00 00       	call   c3a0 <printf>
    325a:	83 c4 10             	add    $0x10,%esp
    325d:	83 ec 0c             	sub    $0xc,%esp
    3260:	68 c0 ec 00 00       	push   $0xecc0
    3265:	e8 f6 8b 00 00       	call   be60 <strlen>
    326a:	89 c6                	mov    %eax,%esi
    326c:	c7 04 24 25 c8 00 00 	movl   $0xc825,(%esp)
    3273:	e8 e8 8b 00 00       	call   be60 <strlen>
    3278:	8d 44 06 02          	lea    0x2(%esi,%eax,1),%eax
    327c:	83 c4 10             	add    $0x10,%esp
    327f:	39 d8                	cmp    %ebx,%eax
    3281:	77 c5                	ja     3248 <test_pid_current+0x28>
    3283:	83 ec 0c             	sub    $0xc,%esp
    3286:	68 32 02 00 00       	push   $0x232
    328b:	68 30 c8 00 00       	push   $0xc830
    3290:	ff 75 08             	pushl  0x8(%ebp)
    3293:	68 04 ef 00 00       	push   $0xef04
    3298:	6a 01                	push   $0x1
    329a:	e8 01 91 00 00       	call   c3a0 <printf>
    329f:	c7 05 40 42 01 00 01 	movl   $0x1,0x14240
    32a6:	00 00 00 
    32a9:	83 c4 20             	add    $0x20,%esp
    // Return the process to root cgroup.
    ASSERT_TRUE(move_proc(ROOT_CGROUP_PROCS, getpid()));

    // Check that the process we returned is really in root cgroup.
    ASSERT_TRUE(is_pid_in_group(ROOT_CGROUP_PROCS, getpid()));
}
    32ac:	8d 65 f8             	lea    -0x8(%ebp),%esp
    32af:	5b                   	pop    %ebx
    32b0:	5e                   	pop    %esi
    32b1:	5d                   	pop    %ebp
    32b2:	c3                   	ret    
    32b3:	90                   	nop
    32b4:	8d 74 26 00          	lea    0x0(%esi,%eiz,1),%esi
{
    // Move the current process to "/cgroup/test1" cgroup.
    ASSERT_TRUE(move_proc(TEST_1_CGROUP_PROCS, getpid()));

    // Check that the process we moved is really in "/cgroup/test1" cgroup.
    ASSERT_TRUE(is_pid_in_group(TEST_1_CGROUP_PROCS, getpid()));
    32b8:	e8 ab 8f 00 00       	call   c268 <getpid>
    32bd:	83 ec 08             	sub    $0x8,%esp
    32c0:	31 db                	xor    %ebx,%ebx
    32c2:	50                   	push   %eax
    32c3:	68 ed c9 00 00       	push   $0xc9ed
    32c8:	e8 83 d3 ff ff       	call   650 <is_pid_in_group>
    32cd:	83 c4 10             	add    $0x10,%esp
    32d0:	85 c0                	test   %eax,%eax
    32d2:	74 21                	je     32f5 <test_pid_current+0xd5>
    32d4:	eb 7a                	jmp    3350 <test_pid_current+0x130>
    32d6:	8d 76 00             	lea    0x0(%esi),%esi
    32d9:	8d bc 27 00 00 00 00 	lea    0x0(%edi,%eiz,1),%edi
    32e0:	83 ec 08             	sub    $0x8,%esp
    32e3:	83 c3 01             	add    $0x1,%ebx
    32e6:	68 18 c8 00 00       	push   $0xc818
    32eb:	6a 01                	push   $0x1
    32ed:	e8 ae 90 00 00       	call   c3a0 <printf>
    32f2:	83 c4 10             	add    $0x10,%esp
    32f5:	83 ec 0c             	sub    $0xc,%esp
    32f8:	68 40 ed 00 00       	push   $0xed40
    32fd:	e8 5e 8b 00 00       	call   be60 <strlen>
    3302:	89 c6                	mov    %eax,%esi
    3304:	c7 04 24 25 c8 00 00 	movl   $0xc825,(%esp)
    330b:	e8 50 8b 00 00       	call   be60 <strlen>
    3310:	8d 44 06 02          	lea    0x2(%esi,%eax,1),%eax
    3314:	83 c4 10             	add    $0x10,%esp
    3317:	39 d8                	cmp    %ebx,%eax
    3319:	77 c5                	ja     32e0 <test_pid_current+0xc0>
    331b:	83 ec 0c             	sub    $0xc,%esp
    331e:	68 35 02 00 00       	push   $0x235
    3323:	68 30 c8 00 00       	push   $0xc830
    3328:	ff 75 08             	pushl  0x8(%ebp)
    332b:	68 58 ef 00 00       	push   $0xef58
    3330:	6a 01                	push   $0x1
    3332:	e8 69 90 00 00       	call   c3a0 <printf>
    3337:	c7 05 40 42 01 00 01 	movl   $0x1,0x14240
    333e:	00 00 00 
    3341:	83 c4 20             	add    $0x20,%esp
    // Return the process to root cgroup.
    ASSERT_TRUE(move_proc(ROOT_CGROUP_PROCS, getpid()));

    // Check that the process we returned is really in root cgroup.
    ASSERT_TRUE(is_pid_in_group(ROOT_CGROUP_PROCS, getpid()));
}
    3344:	8d 65 f8             	lea    -0x8(%ebp),%esp
    3347:	5b                   	pop    %ebx
    3348:	5e                   	pop    %esi
    3349:	5d                   	pop    %ebp
    334a:	c3                   	ret    
    334b:	90                   	nop
    334c:	8d 74 26 00          	lea    0x0(%esi,%eiz,1),%esi

    // Check that the process we moved is really in "/cgroup/test1" cgroup.
    ASSERT_TRUE(is_pid_in_group(TEST_1_CGROUP_PROCS, getpid()));

    // Check pid.current changed to display 1
    ASSERT_FALSE(strcmp(read_file(TEST_1_PID_CURRENT, 0), "num_of_procs - 1\n"));
    3350:	83 ec 08             	sub    $0x8,%esp
    3353:	31 db                	xor    %ebx,%ebx
    3355:	6a 00                	push   $0x0
    3357:	68 9a ca 00 00       	push   $0xca9a
    335c:	e8 bf ce ff ff       	call   220 <read_file>
    3361:	5a                   	pop    %edx
    3362:	59                   	pop    %ecx
    3363:	68 21 cd 00 00       	push   $0xcd21
    3368:	50                   	push   %eax
    3369:	e8 12 8a 00 00       	call   bd80 <strcmp>
    336e:	83 c4 10             	add    $0x10,%esp
    3371:	85 c0                	test   %eax,%eax
    3373:	75 20                	jne    3395 <test_pid_current+0x175>
    3375:	eb 72                	jmp    33e9 <test_pid_current+0x1c9>
    3377:	89 f6                	mov    %esi,%esi
    3379:	8d bc 27 00 00 00 00 	lea    0x0(%edi,%eiz,1),%edi
    3380:	83 ec 08             	sub    $0x8,%esp
    3383:	83 c3 01             	add    $0x1,%ebx
    3386:	68 18 c8 00 00       	push   $0xc818
    338b:	6a 01                	push   $0x1
    338d:	e8 0e 90 00 00       	call   c3a0 <printf>
    3392:	83 c4 10             	add    $0x10,%esp
    3395:	83 ec 0c             	sub    $0xc,%esp
    3398:	68 28 f0 00 00       	push   $0xf028
    339d:	e8 be 8a 00 00       	call   be60 <strlen>
    33a2:	89 c6                	mov    %eax,%esi
    33a4:	c7 04 24 25 c8 00 00 	movl   $0xc825,(%esp)
    33ab:	e8 b0 8a 00 00       	call   be60 <strlen>
    33b0:	8d 44 06 02          	lea    0x2(%esi,%eax,1),%eax
    33b4:	83 c4 10             	add    $0x10,%esp
    33b7:	39 d8                	cmp    %ebx,%eax
    33b9:	77 c5                	ja     3380 <test_pid_current+0x160>
    33bb:	83 ec 0c             	sub    $0xc,%esp
    33be:	68 38 02 00 00       	push   $0x238
    33c3:	68 30 c8 00 00       	push   $0xc830
    33c8:	ff 75 08             	pushl  0x8(%ebp)
    33cb:	68 68 f0 00 00       	push   $0xf068
    33d0:	6a 01                	push   $0x1
    33d2:	e8 c9 8f 00 00       	call   c3a0 <printf>
    33d7:	c7 05 40 42 01 00 01 	movl   $0x1,0x14240
    33de:	00 00 00 
    33e1:	83 c4 20             	add    $0x20,%esp
    33e4:	e9 c3 fe ff ff       	jmp    32ac <test_pid_current+0x8c>

    // Return the process to root cgroup.
    ASSERT_TRUE(move_proc(ROOT_CGROUP_PROCS, getpid()));
    33e9:	e8 7a 8e 00 00       	call   c268 <getpid>
    33ee:	83 ec 08             	sub    $0x8,%esp
    33f1:	31 db                	xor    %ebx,%ebx
    33f3:	50                   	push   %eax
    33f4:	68 f0 cc 00 00       	push   $0xccf0
    33f9:	e8 22 d2 ff ff       	call   620 <move_proc>
    33fe:	83 c4 10             	add    $0x10,%esp
    3401:	85 c0                	test   %eax,%eax
    3403:	74 20                	je     3425 <test_pid_current+0x205>
    3405:	eb 72                	jmp    3479 <test_pid_current+0x259>
    3407:	89 f6                	mov    %esi,%esi
    3409:	8d bc 27 00 00 00 00 	lea    0x0(%edi,%eiz,1),%edi
    3410:	83 ec 08             	sub    $0x8,%esp
    3413:	83 c3 01             	add    $0x1,%ebx
    3416:	68 18 c8 00 00       	push   $0xc818
    341b:	6a 01                	push   $0x1
    341d:	e8 7e 8f 00 00       	call   c3a0 <printf>
    3422:	83 c4 10             	add    $0x10,%esp
    3425:	83 ec 0c             	sub    $0xc,%esp
    3428:	68 b0 ef 00 00       	push   $0xefb0
    342d:	e8 2e 8a 00 00       	call   be60 <strlen>
    3432:	89 c6                	mov    %eax,%esi
    3434:	c7 04 24 25 c8 00 00 	movl   $0xc825,(%esp)
    343b:	e8 20 8a 00 00       	call   be60 <strlen>
    3440:	8d 44 06 02          	lea    0x2(%esi,%eax,1),%eax
    3444:	83 c4 10             	add    $0x10,%esp
    3447:	39 d8                	cmp    %ebx,%eax
    3449:	77 c5                	ja     3410 <test_pid_current+0x1f0>
    344b:	83 ec 0c             	sub    $0xc,%esp
    344e:	68 3b 02 00 00       	push   $0x23b
    3453:	68 30 c8 00 00       	push   $0xc830
    3458:	ff 75 08             	pushl  0x8(%ebp)
    345b:	68 d8 ef 00 00       	push   $0xefd8
    3460:	6a 01                	push   $0x1
    3462:	e8 39 8f 00 00       	call   c3a0 <printf>
    3467:	c7 05 40 42 01 00 01 	movl   $0x1,0x14240
    346e:	00 00 00 
    3471:	83 c4 20             	add    $0x20,%esp
    3474:	e9 33 fe ff ff       	jmp    32ac <test_pid_current+0x8c>

    // Check that the process we returned is really in root cgroup.
    ASSERT_TRUE(is_pid_in_group(ROOT_CGROUP_PROCS, getpid()));
    3479:	e8 ea 8d 00 00       	call   c268 <getpid>
    347e:	83 ec 08             	sub    $0x8,%esp
    3481:	31 db                	xor    %ebx,%ebx
    3483:	50                   	push   %eax
    3484:	68 f0 cc 00 00       	push   $0xccf0
    3489:	e8 c2 d1 ff ff       	call   650 <is_pid_in_group>
    348e:	83 c4 10             	add    $0x10,%esp
    3491:	85 c0                	test   %eax,%eax
    3493:	74 20                	je     34b5 <test_pid_current+0x295>
    3495:	e9 12 fe ff ff       	jmp    32ac <test_pid_current+0x8c>
    349a:	8d b6 00 00 00 00    	lea    0x0(%esi),%esi
    34a0:	83 ec 08             	sub    $0x8,%esp
    34a3:	83 c3 01             	add    $0x1,%ebx
    34a6:	68 18 c8 00 00       	push   $0xc818
    34ab:	6a 01                	push   $0x1
    34ad:	e8 ee 8e 00 00       	call   c3a0 <printf>
    34b2:	83 c4 10             	add    $0x10,%esp
    34b5:	83 ec 0c             	sub    $0xc,%esp
    34b8:	68 c8 ed 00 00       	push   $0xedc8
    34bd:	e8 9e 89 00 00       	call   be60 <strlen>
    34c2:	89 c6                	mov    %eax,%esi
    34c4:	c7 04 24 25 c8 00 00 	movl   $0xc825,(%esp)
    34cb:	e8 90 89 00 00       	call   be60 <strlen>
    34d0:	8d 44 06 02          	lea    0x2(%esi,%eax,1),%eax
    34d4:	83 c4 10             	add    $0x10,%esp
    34d7:	39 d8                	cmp    %ebx,%eax
    34d9:	77 c5                	ja     34a0 <test_pid_current+0x280>
    34db:	83 ec 0c             	sub    $0xc,%esp
    34de:	68 3e 02 00 00       	push   $0x23e
    34e3:	68 30 c8 00 00       	push   $0xc830
    34e8:	ff 75 08             	pushl  0x8(%ebp)
    34eb:	68 f8 ed 00 00       	push   $0xedf8
    34f0:	6a 01                	push   $0x1
    34f2:	e8 a9 8e 00 00       	call   c3a0 <printf>
    34f7:	c7 05 40 42 01 00 01 	movl   $0x1,0x14240
    34fe:	00 00 00 
    3501:	83 c4 20             	add    $0x20,%esp
    3504:	e9 a3 fd ff ff       	jmp    32ac <test_pid_current+0x8c>
    3509:	8d b4 26 00 00 00 00 	lea    0x0(%esi,%eiz,1),%esi

00003510 <test_moving_process>:
}

TEST(test_moving_process)
{
    3510:	55                   	push   %ebp
    3511:	89 e5                	mov    %esp,%ebp
    3513:	56                   	push   %esi
    3514:	53                   	push   %ebx
    3515:	31 db                	xor    %ebx,%ebx
    // Move the current process to "/cgroup/test1" cgroup.
    ASSERT_TRUE(move_proc(TEST_1_CGROUP_PROCS, getpid()));
    3517:	e8 4c 8d 00 00       	call   c268 <getpid>
    351c:	83 ec 08             	sub    $0x8,%esp
    351f:	50                   	push   %eax
    3520:	68 ed c9 00 00       	push   $0xc9ed
    3525:	e8 f6 d0 ff ff       	call   620 <move_proc>
    352a:	83 c4 10             	add    $0x10,%esp
    352d:	85 c0                	test   %eax,%eax
    352f:	74 1c                	je     354d <test_moving_process+0x3d>
    3531:	eb 75                	jmp    35a8 <test_moving_process+0x98>
    3533:	90                   	nop
    3534:	8d 74 26 00          	lea    0x0(%esi,%eiz,1),%esi
    3538:	83 ec 08             	sub    $0x8,%esp
    353b:	83 c3 01             	add    $0x1,%ebx
    353e:	68 18 c8 00 00       	push   $0xc818
    3543:	6a 01                	push   $0x1
    3545:	e8 56 8e 00 00       	call   c3a0 <printf>
    354a:	83 c4 10             	add    $0x10,%esp
    354d:	83 ec 0c             	sub    $0xc,%esp
    3550:	68 c0 ec 00 00       	push   $0xecc0
    3555:	e8 06 89 00 00       	call   be60 <strlen>
    355a:	89 c6                	mov    %eax,%esi
    355c:	c7 04 24 25 c8 00 00 	movl   $0xc825,(%esp)
    3563:	e8 f8 88 00 00       	call   be60 <strlen>
    3568:	8d 44 06 02          	lea    0x2(%esi,%eax,1),%eax
    356c:	83 c4 10             	add    $0x10,%esp
    356f:	39 d8                	cmp    %ebx,%eax
    3571:	77 c5                	ja     3538 <test_moving_process+0x28>
    3573:	83 ec 0c             	sub    $0xc,%esp
    3576:	68 44 02 00 00       	push   $0x244
    357b:	68 30 c8 00 00       	push   $0xc830
    3580:	ff 75 08             	pushl  0x8(%ebp)
    3583:	68 04 ef 00 00       	push   $0xef04
    3588:	6a 01                	push   $0x1
